0001: 0000                                    
0002: 0000                ;**************************************************************
0003: 0000                ;*                  
0004: 0000                ;*             C P / M   version   2 . 2
0005: 0000                ;*                    Sourced from:
0006: 0000                ;*  Reconstructed from memory image on February 27, 1981
0007: 0000                ;*                by Clark A. Calkins
0008: 0000                ;*                  
0009: 0000                ;**************************************************************
0010: 0000                ;                   
0011: 0000                                    
0012: 0000                ;                   
0013: 0000                MEM			EQU		64			;for a 64k system 
0014: 0000                ;                   
0015: 0000                IOBYTE		EQU		3			;i/o definition byte.
0016: 0000                TDRIVE		EQU		4			;current drive name and user number.
0017: 0000                ENTRY		EQU		5			;entry point for the cp/m bdos.
0018: 0000                DefaultFCB	EQU		5CH			;default file control block.
0019: 0000                Pg0Buffer	EQU		80H			;i/o buffer and command line storage.
0020: 0000                TBASE		EQU		100H		;transiant program storage area.
0021: 0000                ;                   
0022: 0000                ;   Set control character equates.
0023: 0000                ;                   
0024: 0000                CNTRLC		EQU		03H			;control-c
0025: 0000                CNTRLE		EQU		05H			;control-e
0026: 0000                BS			EQU		08H			;backspace
0027: 0000                TAB			EQU		09H			;tab
0028: 0000                LF			EQU		0AH			;line feed
0029: 0000                FF			EQU		0CH			;form feed
0030: 0000                CR			EQU		0DH			;carriage return
0031: 0000                CNTRLP		EQU		10H			;control-p
0032: 0000                CNTRLR		EQU		12H			;control-r
0033: 0000                CNTRLS		EQU		13H			;control-s
0034: 0000                CNTRLU		EQU		15H			;control-u
0035: 0000                CNTRLX		EQU		18H			;control-x
0036: 0000                CNTRLZ		EQU		1AH			;control-z (end-of-file mark)
0037: 0000                DEL			EQU		7FH			;rubout
0038: 0000                ;                   
0039: 0000                BLANK		EQU		020H		; Space/Blank
0040: 0000                BRACKETLEFT		EQU	07BH		; {
0041: 0000                BRACKETRIGHT	EQU	07DH		; }
0042: 0000                QMARK		EQU		03FH		; ?
0043: 0000                EQUALS		EQU		03DH		; =
0044: 0000                USCORE		EQU		05FH		; _
0045: 0000                PERIOD		EQU		02EH		; .
0046: 0000                COLON		EQU		03AH		; :
0047: 0000                SEMIC		EQU		03BH		; ;
0048: 0000                LESSTH		EQU		03CH		; <
0049: 0000                GRTTHAN		EQU		03EH		; >
0050: 0000                ASTRK		EQU		02AH		; *
0051: 0000                CARET		EQU		05EH		; ^
0052: 0000                ATSIGN		EQU		040H		; @
0053: 0000                POUNDSN		EQU		023H		; #
0054: 0000                DOLLAR		EQU		024H		; $
0055: 0000                                    
0056: 0000                EndOfMessage	EQU	00H
0057: 0000                EmptyFileFlag	EQU	0E5H		; empty file slot in dorectory
0058: 0000                ;                   
0059: 0000                ;   Set origin for CP/M
0060: 0000                ;                   
0061: 0000                	ORG	(MEM-8)*1024   
0062: E000                CodeStart:          
0063: E000                ;                   
0064: E000                CBASE:              
0065: E000     C32FE3     		JMP		COMMAND		;execute command processor (ccp).
0066: E003     C32BE3     		JMP		CLEARBUF	;entry to empty input buffer before starting ccp.
0067: E006                                    
0068: E006                ;                   
0069: E006                ;   Standard cp/m ccp input buffer. Format is (max length),
0070: E006                ; (actual length), (char #1), (char #2), (char #3), etc.
0071: E006                ;                   
0072: E006                InBuffStart:        
0073: E006                InBuffSize:					;length of input buffer.
0074: E006     7F         		DB		InBuffEnd - InBuffStart		
0075: E007                InBuffCount:			;current Count of contents.
0076: E007     00         		DB		0             
0077: E008                InBuff:             
0078: E008     434F5059524947485420 		DB		'Copyright '  
0079: E012     313937392028432920425920 		DB		'1979 (c) by '
0080: E01E     4449474954414C205245534541524348 		DB		'Digital Research'
0081: E02E     00         		DB		00            
0082: E02F                		DS		86			         
0083: E085                InBuffEnd:          
0084: E085                		                  
0085: E085                InBuffAddress:      
0086: E085     08E0       		DW		InBuff		;input line pointer
0087: E087                ErrorMsgPointer:    
0088: E087     0000       		DW		0			; input line pointer used for error message. Points to
0089: E089                							; start of name in error.
0090: E089                ;                   
0091: E089                ;   Routine to print (A) on the console. All registers used.
0092: E089                ;                   
0093: E089                PRINT:              
0094: E089     5F         	MOV		E,A			;setup bdos call.
0095: E08A     0E02       	MVI		C,2           
0096: E08C     C30500     	JMP		ENTRY         
0097: E08F                ;                   
0098: E08F                ;   Routine to print (A) on the console and to save (BC).
0099: E08F                ;                   
0100: E08F                PRINTB:             
0101: E08F     C5         	PUSH	B             
0102: E090     CD89E0     	CALL	PRINT         
0103: E093     C1         	POP		B             
0104: E094     C9         	RET                
0105: E095                ;                   
0106: E095                ;   Routine to send a carriage return, line feed combination
0107: E095                ; to the console.   
0108: E095                ;                   
0109: E095                CRLF:               
0110: E095     3E0D       	MVI		A,CR          
0111: E097     CD8FE0     	CALL	PRINTB        
0112: E09A     3E0A       	MVI		A,LF          
0113: E09C     C38FE0     	JMP		PRINTB        
0114: E09F                ;                   
0115: E09F                ;   Routine to send one space to the console and save (BC).
0116: E09F                ;                   
0117: E09F                SPACE:              
0118: E09F     3E20       	MVI		A,BLANK		; blank/Space
0119: E0A1     C38FE0     	JMP		PRINTB        
0120: E0A4                ;                   
0121: E0A4                ;   Routine to print character string pointed to be (BC) on the
0122: E0A4                ; console. It must terminate with a null byte.
0123: E0A4                ;                   
0124: E0A4                PLINE:              
0125: E0A4     C5         	PUSH	B             
0126: E0A5     CD95E0     	CALL	CRLF          
0127: E0A8     E1         	POP		H             
0128: E0A9                PLINE2:             
0129: E0A9     7E         	MOV		A,M           
0130: E0AA     B7         	ORA		A             
0131: E0AB     C8         	RZ                 
0132: E0AC     23         	INX		H             
0133: E0AD     E5         	PUSH	H             
0134: E0AE     CD89E0     	CALL	PRINT         
0135: E0B1     E1         	POP		H             
0136: E0B2     C3A9E0     	JMP		PLINE2        
0137: E0B5                ;                   
0138: E0B5                ;   Routine to reset the disk system.
0139: E0B5                ;                   
0140: E0B5                ResetDiskSystem:    
0141: E0B5     0E0D       	MVI		C,13          
0142: E0B7     C30500     	JMP		ENTRY         
0143: E0BA                ;                   
0144: E0BA                ;   Routine to select disk (A).
0145: E0BA                ;                   
0146: E0BA                DSKSEL:             
0147: E0BA     5F         	MOV		E,A           
0148: E0BB     0E0E       	MVI		C,14          
0149: E0BD     C30500     	JMP		ENTRY         
0150: E0C0                ;                   
0151: E0C0                ;   Routine to call bdos and save the return code. The zero
0152: E0C0                ; flag is set on a return of 0ffh.
0153: E0C0                ;                   
0154: E0C0                ENTRY1:             
0155: E0C0     CD0500     	CALL	ENTRY         
0156: E0C3     32BCE7     	STA		RTNCODE		;save return code.
0157: E0C6     3C         	INR		A			;set zero if 0ffh returned.
0158: E0C7     C9         	RET                
0159: E0C8                ;                   
0160: E0C8                ;   Routine to open a file. (DE) must point to the FCB.
0161: E0C8                ;                   
0162: E0C8                OPEN:               
0163: E0C8     0E0F       	MVI		C,15          
0164: E0CA     C3C0E0     	JMP		ENTRY1        
0165: E0CD                ;                   
0166: E0CD                ;   Routine to open file at (FCB).
0167: E0CD                ;                   
0168: E0CD                OPENFCB:            
0169: E0CD     AF         	XRA		A		;clear the record number byte at fcb+32
0170: E0CE     32BBE7     	STA		FCBfromCCP+32 
0171: E0D1     119BE7     	LXI		D,FCBfromCCP  
0172: E0D4     C3C8E0     	JMP		OPEN          
0173: E0D7                ;                   
0174: E0D7                ;   Routine to close a file. (DE) points to FCB.
0175: E0D7                ;                   
0176: E0D7                CLOSE:              
0177: E0D7     0E10       	MVI		C,16          
0178: E0D9     C3C0E0     	JMP		ENTRY1        
0179: E0DC                ;                   
0180: E0DC                ;   Routine to search for the first file with ambigueous name
0181: E0DC                ; (DE).             
0182: E0DC                ;                   
0183: E0DC                SRCHFST:            
0184: E0DC     0E11       	MVI		C,17          
0185: E0DE     C3C0E0     	JMP		ENTRY1        
0186: E0E1                ;                   
0187: E0E1                ;   Search for the next ambigeous file name.
0188: E0E1                ;                   
0189: E0E1                SRCHNXT:            
0190: E0E1     0E12       	MVI		C,18          
0191: E0E3     C3C0E0     	JMP		ENTRY1        
0192: E0E6                ;                   
0193: E0E6                ;   Search for file at (FCB).
0194: E0E6                ;                   
0195: E0E6                SRCHFCB:            
0196: E0E6     119BE7     	LXI		D,FCBfromCCP  
0197: E0E9     C3DCE0     	JMP		SRCHFST       
0198: E0EC                ;                   
0199: E0EC                ;   Routine to delete a file pointed to by (DE).
0200: E0EC                ;                   
0201: E0EC                DELETE:             
0202: E0EC     0E13       	MVI		C,19          
0203: E0EE     C30500     	JMP		ENTRY         
0204: E0F1                ;                   
0205: E0F1                ;   Routine to call the bdos and set the zero flag if a zero
0206: E0F1                ; status is returned.
0207: E0F1                ;                   
0208: E0F1                ENTRY2:             
0209: E0F1     CD0500     	CALL	ENTRY         
0210: E0F4     B7         	ORA		A		;set zero flag if appropriate.
0211: E0F5     C9         	RET                
0212: E0F6                ;                   
0213: E0F6                ;   Routine to read the next record from a sequential file.
0214: E0F6                ; (DE) points to the FCB.
0215: E0F6                ;                   
0216: E0F6                RDREC:              
0217: E0F6     0E14       	MVI		C,20          
0218: E0F8     C3F1E0     	JMP		ENTRY2        
0219: E0FB                ;                   
0220: E0FB                ;   Routine to read file at (FCB).
0221: E0FB                ;                   
0222: E0FB                READFCB:            
0223: E0FB     119BE7     	LXI		D,FCBfromCCP  
0224: E0FE     C3F6E0     	JMP		RDREC         
0225: E101                ;                   
0226: E101                ;   Routine to write the next record of a sequential file.
0227: E101                ; (DE) points to the FCB.
0228: E101                ;                   
0229: E101                WRTREC:             
0230: E101     0E15       	MVI		C,21          
0231: E103     C3F1E0     	JMP		ENTRY2        
0232: E106                ;                   
0233: E106                ;   Routine to create the file pointed to by (DE).
0234: E106                ;                   
0235: E106                CREATE:             
0236: E106     0E16       	MVI		C,22          
0237: E108     C3C0E0     	JMP		ENTRY1        
0238: E10B                ;                   
0239: E10B                ;   Routine to rename the file pointed to by (DE). Note that
0240: E10B                ; the new name starts at (DE+16).
0241: E10B                ;                   
0242: E10B                RENAM:              
0243: E10B     0E17       	MVI		C,23          
0244: E10D     C30500     	JMP		ENTRY         
0245: E110                ;                   
0246: E110                ;   Get the current user code.
0247: E110                ;                   
0248: E110                GETUSR:             
0249: E110     1EFF       	MVI		E,0FFH			; make it get
0250: E112                ;                   
0251: E112                ;   Routine to get or set the current user code.
0252: E112                ; If (E) is FF then this is a GET, else it is a SET.
0253: E112                ;                   
0254: E112                GetSetCurrentUser:  
0255: E112     0E20       	MVI		C,32			; BDOS vector
0256: E114     C30500     	JMP		ENTRY         
0257: E117                ;                   
0258: E117                ;   Routine to set the current drive byte at (TDRIVE).
0259: E117                ;                   
0260: E117                SetCurrentDrive:    
0261: E117     CD10E1     	CALL	GETUSR			;get user number
0262: E11A     87         	ADD		A				;and shift into the upper 4 bits.
0263: E11B     87         	ADD		A             
0264: E11C     87         	ADD		A             
0265: E11D     87         	ADD		A             
0266: E11E     21BDE7     	LXI		H,CDRIVE		;now add in the current drive number.
0267: E121     B6         	ORA		M             
0268: E122     320400     	STA		TDRIVE			;and save.
0269: E125     C9         	RET                
0270: E126                ;                   
0271: E126                ;   Move currently active drive down to (TDRIVE).
0272: E126                ;                   
0273: E126                MOVECD:             
0274: E126     3ABDE7     	LDA		CDRIVE        
0275: E129     320400     	STA		TDRIVE        
0276: E12C     C9         	RET                
0277: E12D                ;                   
0278: E12D                ;   Routine to convert (A) into upper case ascii. Only letters
0279: E12D                ; are affected.     
0280: E12D                ;                   
0281: E12D                UPPER:              
0282: E12D     FE61       	CPI		061H			; 'a'	;check for letters in the range of 'a' to 'z'.
0283: E12F     D8         	RC                 
0284: E130     FE7B       	CPI		BRACKETLEFT		;'{'
0285: E132     D0         	RNC                
0286: E133     E65F       	ANI		5FH				;convert it if found.
0287: E135     C9         	RET                
0288: E136                ;                   
0289: E136                ;   Routine to get a line of input. We must check to see if the
0290: E136                ; user is in (BatchFlag) mode. If so, then read the input from file
0291: E136                ; ($$$.SUB). At the end, reset to console input.
0292: E136                ;                   
0293: E136                InputLine:          
0294: E136     3A79E7     	LDA		BatchFlag			;if =0, then use console input.
0295: E139     B7         	ORA		A             
0296: E13A     CA93E1     	JZ		InputLineConsole
0297: E13D                ;                   
0298: E13D                ;   Use the submit file ($$$.sub) which is prepared by a
0299: E13D                ; SUBMIT run. It must be on drive (A) and it will be deleted
0300: E13D                ; if and error occures (like eof).
0301: E13D                ;                   
0302: E13D     3ABDE7     	LDA		CDRIVE		;select drive 0 if need be.
0303: E140     B7         	ORA		A             
0304: E141     3E00       	MVI		A,0			;always use drive A for submit.
0305: E143     C4BAE0     	CNZ		DSKSEL		;select it if required.
0306: E146     117AE7     	LXI		D,BATCHFCB    
0307: E149     CDC8E0     	CALL	OPEN		;look for it.
0308: E14C     CA93E1     	JZ		InputLineConsole		;if not there, use normal input.
0309: E14F     3A89E7     	LDA		BATCHFCB+15	;get last record number+1.
0310: E152     3D         	DCR		A             
0311: E153     329AE7     	STA		BATCHFCB+32   
0312: E156     117AE7     	LXI		D,BATCHFCB    
0313: E159     CDF6E0     	CALL	RDREC		;read last record.
0314: E15C     C293E1     	JNZ		InputLineConsole		;quit on end of file.
0315: E15F                ;                   
0316: E15F                ;   Move this record into input buffer.
0317: E15F                ;                   
0318: E15F     1107E0     	LXI		D,InBuffCount 
0319: E162     218000     	LXI		H,Pg0Buffer	;data was read into buffer here.
0320: E165     06E006     	MVI		B,InBuffSize		;all 128 characters may be used.
0321: E167     CD13E4     	CALL	HL2DE		;(HL) to (DE), (B) bytes.
0322: E16A     2188E7     	LXI		H,BATCHFCB+14 
0323: E16D     3600       	MVI		M,0			;zero out the 's2' byte.
0324: E16F     23         	INX		H			;and decrement the record count.
0325: E170     35         	DCR		M             
0326: E171     117AE7     	LXI		D,BATCHFCB	;close the batch file now.
0327: E174     CDD7E0     	CALL	CLOSE         
0328: E177     CA93E1     	JZ		InputLineConsole		;quit on an error.
0329: E17A     3ABDE7     	LDA		CDRIVE		;re-select previous drive if need be.
0330: E17D     B7         	ORA		A             
0331: E17E     C4BAE0     	CNZ		DSKSEL		;don't do needless selects.
0332: E181                ;                   
0333: E181                ;   Print line just read on console.
0334: E181                ;                   
0335: E181     2108E0     	LXI		H,InBuff      
0336: E184     CDA9E0     	CALL	PLINE2        
0337: E187     CDBFE1     	CALL	CHKCON		;check console, quit on a key.
0338: E18A     CAA4E1     	JZ		InputLineConsole1		;jump if no key is pressed.
0339: E18D                ;                   
0340: E18D                ;   Terminate the submit job on any keyboard input. Delete this
0341: E18D                ; file such that it is not re-started and jump to normal keyboard
0342: E18D                ; input section.    
0343: E18D                ;                   
0344: E18D     CDDAE1     	CALL	DeleteBatchFile	;delete the batch file.
0345: E190     C353E3     	JMP		CMMND1		;and restart command input.
0346: E193                ;                   
0347: E193                ;   Get here for normal keyboard input. Delete the submit file
0348: E193                ; incase there was one.
0349: E193                ;                   
0350: E193                InputLineConsole:   
0351: E193     CDDAE1     	CALL	DeleteBatchFile		; delete file ($$$.sub).
0352: E196     CD17E1     	CALL	SetCurrentDrive		; reset active disk.
0353: E199     0E0A       	MVI		C,10				; get line from console device.
0354: E19B     1106E0     	LXI		D,InBuffStart		; point at the Inbuff construct (Size, Pos, Buffer)
0355: E19E     CD0500     	CALL	ENTRY				; call BDOS fcConsoleStringIn
0356: E1A1     CD26E1     	CALL	MOVECD		;reset current drive (again).
0357: E1A4                ;                   
0358: E1A4                ;   Convert input line to upper case.
0359: E1A4                ;                   
0360: E1A4                InputLineConsole1:  
0361: E1A4     2107E0     	LXI		H,InBuffCount 
0362: E1A7     46         	MOV		B,M			;(B)=character counter.
0363: E1A8                InputLineConsole2:  
0364: E1A8     23         	INX		H             
0365: E1A9     78         	MOV		A,B			;end of the line?
0366: E1AA     B7         	ORA		A             
0367: E1AB     CAB7E1     	JZ		InputLineConsole3
0368: E1AE     7E         	MOV		A,M			;convert to upper case.
0369: E1AF     CD2DE1     	CALL	UPPER         
0370: E1B2     77         	MOV		M,A           
0371: E1B3     05         	DCR		B			;adjust character count.
0372: E1B4     C3A8E1     	JMP		InputLineConsole2
0373: E1B7                InputLineConsole3:  
0374: E1B7     77         	MOV		M,A			;add trailing null.
0375: E1B8     2108E0     	LXI		H,InBuff      
0376: E1BB     2285E0     	SHLD	InBuffAddress		;reset input line pointer.
0377: E1BE     C9         	RET                
0378: E1BF                ;                   
0379: E1BF                ;   Routine to check the console for a key pressed. The zero
0380: E1BF                ; flag is set is none, else the character is returned in (A).
0381: E1BF                ;                   
0382: E1BF                CHKCON:             
0383: E1BF     0E0B       	MVI		C,11		;check console.
0384: E1C1     CD0500     	CALL	ENTRY         
0385: E1C4     B7         	ORA		A             
0386: E1C5     C8         	RZ					;return if nothing.
0387: E1C6     0E01       	MVI		C,1			;else get character.
0388: E1C8     CD0500     	CALL	ENTRY         
0389: E1CB     B7         	ORA		A			;clear zero flag and return.
0390: E1CC     C9         	RET                
0391: E1CD                ;                   
0392: E1CD                ;   Routine to get the currently active drive number.
0393: E1CD                ;                   
0394: E1CD                GETDSK:             
0395: E1CD     0E19       	MVI		C,25          
0396: E1CF     C30500     	JMP		ENTRY         
0397: E1D2                ;                   
0398: E1D2                ;   Set the stabdard dma address.
0399: E1D2                ;                   
0400: E1D2                STDDMA:             
0401: E1D2     118000     	LXI		D,Pg0Buffer   
0402: E1D5                ;                   
0403: E1D5                ;   Routine to set the dma address to (DE).
0404: E1D5                ;                   
0405: E1D5                DMASET:             
0406: E1D5     0E1A       	MVI		C,26          
0407: E1D7     C30500     	JMP		ENTRY         
0408: E1DA                ;                   
0409: E1DA                ;  Delete the batch file created by SUBMIT.
0410: E1DA                ;                   
0411: E1DA                DeleteBatchFile:    
0412: E1DA     2179E7     	LXI		H,BatchFlag			;is batch active?
0413: E1DD     7E         	MOV		A,M           
0414: E1DE     B7         	ORA		A             
0415: E1DF     C8         	RZ                 
0416: E1E0     3600       	MVI		M,0				;yes, de-activate it.
0417: E1E2     AF         	XRA		A             
0418: E1E3     CDBAE0     	CALL	DSKSEL			;select drive 0 for sure.
0419: E1E6     117AE7     	LXI		D,BATCHFCB		;and delete this file.
0420: E1E9     CDECE0     	CALL	DELETE        
0421: E1EC     3ABDE7     	LDA		CDRIVE			;reset current drive.
0422: E1EF     C3BAE0     	JMP		DSKSEL        
0423: E1F2                ;                   
0424: E1F2                ;   Check to two strings at (PATTRN1) and (PATTRN2). They must be
0425: E1F2                ; the same or we halt....
0426: E1F2                ;                   
0427: E1F2                ;VERIFY:            
0428: E1F2                ;	LXI		D,PATTRN1		;these are the serial number bytes.
0429: E1F2                ;	LXI		H,PATTRN2		;ditto, but how could they be different?
0430: E1F2                ;	MVI		B,6				;6 bytes each.
0431: E1F2                ;VERIFY1:           
0432: E1F2                ;	LDAX	D            
0433: E1F2                ;	CMP		M            
0434: E1F2                ;	JNZ		HALT			;jump to halt routine.
0435: E1F2                ;	INX		D            
0436: E1F2                ;	INX		H            
0437: E1F2                ;	DCR		B            
0438: E1F2                ;	JNZ		VERIFY1      
0439: E1F2                ;	RET               
0440: E1F2                ;                   
0441: E1F2                ;   Print back file name with a '?' to indicate a syntax error.
0442: E1F2                ;                   
0443: E1F2                SYNERR:             
0444: E1F2     CD95E0     	CALL	CRLF	;end current line.
0445: E1F5     2A87E0     	LHLD	ErrorMsgPointer	;this points to name in error.
0446: E1F8                SYNERR1:            
0447: E1F8     7E         	MOV	A,M	;print it until a space or null is found.
0448: E1F9     FE20       	CPI	BLANK		; Space 
0449: E1FB     CA0BE2     	JZ	SYNERR2         
0450: E1FE     B7         	ORA	A              
0451: E1FF     CA0BE2     	JZ	SYNERR2         
0452: E202     E5         	PUSH	H             
0453: E203     CD89E0     	CALL	PRINT         
0454: E206     E1         	POP	H              
0455: E207     23         	INX	H              
0456: E208     C3F8E1     	JMP	SYNERR1        
0457: E20B                SYNERR2:            
0458: E20B     3E3F       	MVI	A,QMARK		;add trailing '?'.
0459: E20D     CD89E0     	CALL	PRINT         
0460: E210     CD95E0     	CALL	CRLF          
0461: E213     CDDAE1     	CALL	DeleteBatchFile;delete any batch file.
0462: E216     C353E3     	JMP	CMMND1	;and restart from console input.
0463: E219                ;                   
0464: E219                ;   Check character at (DE) for legal command input. Note that the
0465: E219                ; zero flag is set if the character is a delimiter.
0466: E219                ;                   
0467: E219                CHECK:              
0468: E219     1A         	LDAX	D			; Grab the character
0469: E21A     B7         	ORA		A             
0470: E21B     C8         	RZ					; Exit, its a Null (00)
0471: E21C                	                   
0472: E21C     FE20       	CPI		BLANK		; Is  less than 020H - controls character
0473: E21E     DAF2E1     	JC		SYNERR		; Yes,  Syntax error - exit CCP
0474: E221     C8         	RZ					; Exit because Space is valid delimiter.
0475: E222                	                   
0476: E222     FE3D       	CPI	EQUALS			; '=' 
0477: E224     C8         	RZ                 
0478: E225     FE5F       	CPI	USCORE			; '_' 
0479: E227     C8         	RZ                 
0480: E228     FE2E       	CPI	PERIOD			; '.' 
0481: E22A     C8         	RZ                 
0482: E22B     FE3A       	CPI	COLON			; ':'  
0483: E22D     C8         	RZ                 
0484: E22E     FE3B       	CPI	SEMIC			; ';'  
0485: E230     C8         	RZ                 
0486: E231     FE3C       	CPI	LESSTH			; '<' 
0487: E233     C8         	RZ                 
0488: E234     FE3E       	CPI	GRTTHAN			; '>'
0489: E236     C8         	RZ                 
0490: E237     C9         	RET					; Character is legal, but not a delimiter
0491: E238                ;                   
0492: E238                ;   Get the next non-blank character from (DE).
0493: E238                ;                   
0494: E238                NextNonBlankChar:   
0495: E238     1A         	LDAX	D			; get the next character
0496: E239     B7         	ORA		A			;Since string ends with a null.
0497: E23A     C8         	RZ					; we return here if its 00
0498: E23B     FE20       	CPI		BLANK		; Is it a space?
0499: E23D     C0         	RNZ					; No, then we have the next non-space char
0500: E23E                	                   
0501: E23E     13         	INX		D			; since it a space we need to look at the next character
0502: E23F     C338E2     	JMP		NextNonBlankChar
0503: E242                ;                   
0504: E242                ;   Add (HL)=(HL)+(A)
0505: E242                ;                   
0506: E242                AddAtoHL:           
0507: E242     85         	ADD		L             
0508: E243     6F         	MOV		L,A           
0509: E244     D0         	RNC					;take care of any carry.
0510: E245     24         	INR		H             
0511: E246     C9         	RET                
0512: E247                ;                   
0513: E247                ;   Convert the first name in (FCB).
0514: E247                ;                   
0515: E247                CONVFST:            
0516: E247     3E00       	MVI	A,0		; set up index for first filename
0517: E249                ;                   
0518: E249                ;   Format a file name (convert * to '?', etc.). On return,
0519: E249                ; (A)=0 is an unambigeous name was specified. Enter with (A) equal to
0520: E249                ; the position within the fcb for the name (either 0 or 16).
0521: E249                ;                   
0522: E249                CONVERT:            
0523: E249     219BE7     	LXI		H,FCBfromCCP		; point at FCB setup by CCP
0524: E24C     CD42E2     	CALL	AddAtoHL			; now pointing at correct FCB
0525: E24F     E5         	PUSH	H					; save  
0526: E250     E5         	PUSH	H             
0527: E251     AF         	XRA		A             
0528: E252     32BEE7     	STA		ChangeDriveFlag		; initialize drive change flag - no change.
0529: E255     2A85E0     	LHLD	InBuffAddress		; set (HL) as pointer into input line.
0530: E258     EB         	XCHG						; put line pointer in DE for call
0531: E259     CD38E2     	CALL	NextNonBlankChar	; return the next non-blank character in A
0532: E25C     EB         	XCHG						; put line buffer pointer in HL for now
0533: E25D     2287E0     	SHLD	ErrorMsgPointer		; save pointer here for any error message.
0534: E260     EB         	XCHG						; put line buffer pointer back in DE
0535: E261     E1         	POP		H					; retreive the CCP created FCB
0536: E262     1A         	LDAX	D					; get first character.
0537: E263     B7         	ORA		A					; is it a null 00 ?
0538: E264     CA72E2     	JZ		CONVRT1				; Yes, this FCB is empty (no argument)
0539: E267                	                   
0540: E267     DE40       	SBI		040H		; 'A'-1	;might be a drive name, convert to binary.
0541: E269     47         	MOV		B,A			; and save in case its a drive specifier.
0542: E26A     13         	INX		D			; get the next character 
0543: E26B     1A         	LDAX	D             
0544: E26C     FE3A       	CPI		COLON		; is it ':'
0545: E26E     CA79E2     	JZ		CONVRT2		; Yes, then we have a drive specification
0546: E271     1B         	DCX		D			; No, move pointer back to the start of the line.
0547: E272                CONVRT1:            
0548: E272     3ABDE7     	LDA		CDRIVE		; get current drive
0549: E275     77         	MOV		M,A			; put into the CCP FCB
0550: E276     C37FE2     	JMP		CONVRT3       
0551: E279                CONVRT2:            
0552: E279     78         	MOV		A,B			; get the saved drive number
0553: E27A     32BEE7     	STA		ChangeDriveFlag		; set change in drives flag.
0554: E27D     70         	MOV		M,B			; put new drive number in FCB
0555: E27E     13         	INX		D			; point past drive number
0556: E27F                ;                   
0557: E27F                ;   Convert the basic file name.
0558: E27F                ;                   
0559: E27F                CONVRT3:            
0560: E27F     0608       	MVI		B,08H		; File name size
0561: E281                CONVRT4:            
0562: E281     CDC9E2     	CALL	ExpandName	; Expand all 8 characters in name
0563: E284                                    
0564: E284                CONVRT7:            
0565: E284     CD19E2     	CALL	CHECK		; Do we have a delimiter ?.
0566: E287     CA8EE2     	JZ		GETEXT		; Yes, process the extension
0567: E28A     13         	INX		D			; No, point a the next character
0568: E28B     C384E2     	JMP		CONVRT7		; and see if its a demiliter
0569: E28E                                    
0570: E28E                GETEXT:             
0571: E28E     0603       	MVI		B,03H		; file extension size
0572: E290     FE2E       	CPI		PERIOD		; do we have the Period '.'
0573: E292                ;	JNZ		PADEXT		; No, Pad fill the extension
0574: E292     CA9BE2     	JZ		GETEXT1		; yes, process the extension
0575: E295     CDE1E2     	CALL	PADFIELD	; No, Pad fill the extension
0576: E298     C3A9E2     	JMP		CLEAREXTENT	; process the stuff after the extension
0577: E29B                GETEXT1:            
0578: E29B     13         	INX		D			; get past the period
0579: E29C     CDC9E2     	CALL	ExpandName	; Expand all 3 characters in extension
0580: E29F                                    
0581: E29F                GETEXT4:            
0582: E29F     CD19E2     	CALL	CHECK		; Do we have a delimiter ?.
0583: E2A2     CAA9E2     	JZ		CLEAREXTENT	; Yes, Clear the EX, S1 & S2
0584: E2A5     13         	INX		D			; No, point a the next character
0585: E2A6     C39FE2     	JMP		GETEXT4		; and see if its a demiliter
0586: E2A9                	                   
0587: E2A9                CLEAREXTENT:        
0588: E2A9     0603       	MVI		B,03H		; set count for clearing EX, S1 & S2
0589: E2AB                CLEAREXTENT1:       
0590: E2AB     23         	INX		H			; point at location in the CCP FCB
0591: E2AC     3600       	MVI		M,0			; initialize it
0592: E2AE     05         	DCR		B			; keep count
0593: E2AF     C2ABE2     	JNZ		CLEAREXTENT1	; loop til done
0594: E2B2     EB         	XCHG               
0595: E2B3     2285E0     	SHLD	InBuffAddress		; save current input line pointer.
0596: E2B6     E1         	POP		H			; point at correct CCP FCB
0597: E2B7                ;                   
0598: E2B7                ;   Check to see if this is an ambigeous file name specification.
0599: E2B7                ; Set the (A) register to non zero if it is.
0600: E2B7                ;                   
0601: E2B7                ;AFN - Ambiguous File Name
0602: E2B7     010B00     	LXI		B,11		; set name & Extension length .
0603: E2BA                AFN:                
0604: E2BA     23         	INX		H             
0605: E2BB     7E         	MOV		A,M           
0606: E2BC     FE3F       	CPI		QMARK		; '?'	;any question marks?
0607: E2BE     C2C2E2     	JNZ		AFN1          
0608: E2C1     04         	INR		B			; increment count
0609: E2C2                AFN1:               
0610: E2C2     0D         	DCR		C             
0611: E2C3     C2BAE2     	JNZ		AFN			; loop if not done
0612: E2C6     78         	MOV		A,B			; B has the question mark count 
0613: E2C7     B7         	ORA		A			; set the Z flag for calling routine
0614: E2C8     C9         	RET                
0615: E2C9                	                   
0616: E2C9                ;                   
0617: E2C9                ; ExpandName -	expands the name/ext to all 8/3 characters by either padding with SPACES
0618: E2C9                ;				or, replaceing *'s with ?s for the remainder of the name/ext
0619: E2C9                ;                   
0620: E2C9                ExpandName:         
0621: E2C9     CD19E2     	CALL	CHECK		; Legal input character ?
0622: E2CC     CAE1E2     	JZ		PADFIELD	; its a delimiter, skip the rest of the name/ext 
0623: E2CF     23         	INX		HL            
0624: E2D0     FE2A       	CPI		ASTRK		; '*'	;note that an '*' will fill the remaining
0625: E2D2     C2DAE2     	JNZ		ExpandName1	; otherwise move to the next character and process.
0626: E2D5     363F       	MVI		M,QMARK		; '?'
0627: E2D7     C3DCE2     	JMP		ExpandName2   
0628: E2DA                ExpandName1:        
0629: E2DA     77         	MOV		M,A			; put character in FCB
0630: E2DB     13         	INX		D			; move to next character in input line buffer
0631: E2DC                ExpandName2:        
0632: E2DC     05         	DCR		B			; decrement counter
0633: E2DD     C2C9E2     	JNZ		ExpandName	; loop if not done with fileName
0634: E2E0     C9         	RET					; exit when done!
0635: E2E1                	                   
0636: E2E1                PADFIELD:            
0637: E2E1     23         	INX		H			; blank fill the remaining file name.
0638: E2E2     3620       	MVI		M,BLANK		; store the blank
0639: E2E4     05         	DCR		B			; keep count
0640: E2E5     C2E1E2     	JNZ		PADFIELD		; loop till done
0641: E2E8     C9         	RET					; exit when done!
0642: E2E9                		                  
0643: E2E9                ;                   
0644: E2E9                ;   CP/M command table. Note commands can be either 3 or 4 characters long.
0645: E2E9                ;                   
0646: E2E9                NUMCMDS	EQU	6	;number of commands
0647: E2E9                CMDTBL:             
0648: E2E9     44495220   	DB	'DIR '		; 0     
0649: E2ED     45524120   	DB	'ERA '		; 1     
0650: E2F1     54595045   	DB	'TYPE'		; 2     
0651: E2F5     53415645   	DB	'SAVE'		; 3     
0652: E2F9     52454E20   	DB	'REN '		; 4     
0653: E2FD     55534552   	DB	'USER'		; 5     
0654: E301                	;Unknown		; 6      
0655: E301                ;                   
0656: E301                ;   The following six bytes must agree with those at (PATTRN2)
0657: E301                ; or cp/m will HALT. Why?
0658: E301                ;                   
0659: E301                ;PATTRN1:           
0660: E301                ;	DB	0,22,0,0,0,0;(* serial number bytes *).
0661: E301                ;                   
0662: E301                ;   Search the command table for a match with what has just
0663: E301                ; been entered. If a match is found, then we jump to the
0664: E301                ; proper section. Else jump to (UNKNOWN).
0665: E301                ; On return, the (C) register is set to the command number
0666: E301                ; that matched (or NUMCMDS+1 if no match).
0667: E301                ;                   
0668: E301                SEARCH:             
0669: E301     21E9E2     	LXI	H,CMDTBL       
0670: E304     0E00       	MVI	C,0            
0671: E306                SEARCH1:            
0672: E306     79         	MOV	A,C            
0673: E307     FE06       	CPI	NUMCMDS	;this commands exists.
0674: E309     D0         	RNC                
0675: E30A     119CE7     	LXI	D,FCBfromCCP+1	;check this one.
0676: E30D     0604       	MVI	B,4	;max command length.
0677: E30F                SEARCH2:            
0678: E30F     1A         	LDAX	D             
0679: E310     BE         	CMP	M              
0680: E311     C222E3     	JNZ	SEARCH3	;not a match.
0681: E314     13         	INX	D              
0682: E315     23         	INX	H              
0683: E316     05         	DCR	B              
0684: E317     C20FE3     	JNZ	SEARCH2        
0685: E31A     1A         	LDAX	D	;allow a 3 character command to match.
0686: E31B     FE20       	CPI	BLANK          
0687: E31D     C227E3     	JNZ	SEARCH4        
0688: E320     79         	MOV	A,C	;set return register for this command.
0689: E321     C9         	RET                
0690: E322                SEARCH3:            
0691: E322     23         	INX	H              
0692: E323     05         	DCR	B              
0693: E324     C222E3     	JNZ	SEARCH3        
0694: E327                SEARCH4:            
0695: E327     0C         	INR	C              
0696: E328     C306E3     	JMP	SEARCH1        
0697: E32B                ;                   
0698: E32B                ;   Set the input buffer to empty and then start the command
0699: E32B                ; processor (ccp).  
0700: E32B                ;                   
0701: E32B                CLEARBUF:           
0702: E32B     AF         XRA	A               
0703: E32C     3207E0     	STA	InBuffCount			;second byte is actual length.
0704: E32F                ;                   
0705: E32F                ;**************************************************************
0706: E32F                ;*                  
0707: E32F                ;*                  
0708: E32F                ;* C C P  -   C o n s o l e   C o m m a n d   P r o c e s s o r
0709: E32F                ;*                  
0710: E32F                ;                   
0711: E32F                ;   On entry (C) points at Current disk & user (defaultDisk 0004)
0712: E32F                ;**************************************************************
0713: E32F                ;*                  
0714: E32F                COMMAND:            
0715: E32F     3179E7     	LXI			SP,CCPStack				; Use dedicated stack space.
0716: E332     C5         	PUSH		B						; (C) should be equal to currentDisk where:
0717: E333     79         	MOV			A,C						; (uuuudddd) where 'uuuu' is the user number
0718: E334     1F         	RAR									; and 'dddd' is the drive number.
0719: E335     1F         	RAR                
0720: E336     1F         	RAR                
0721: E337     1F         	RAR                
0722: E338     E60F       	ANI			0FH						; isolate the user number.
0723: E33A     5F         	MOV			E,A						; and put into E for call
0724: E33B     CD12E1     	CALL		GetSetCurrentUser		; to set the current user
0725: E33E     CDB5E0     	CALL		ResetDiskSystem			; reset the disk system.
0726: E341     3279E7     	STA			BatchFlag				; clear batch mode flag.
0727: E344     C1         	POP			B						; Current disk
0728: E345     79         	MOV			A,C						; move current disk to acc
0729: E346                	AN			0FH						; isolate the drive number.
0730: E346     32BDE7     	STA			CDRIVE					;	and save.
0731: E349     CDBAE0     	CALL		DSKSEL					; ...and select.
0732: E34C     3A07E0     	LDA			InBuffCount  
0733: E34F     B7         	ORA			A						; anything in input buffer already?
0734: E350     C269E3     	JNZ			CMMND2					; yes, then just process it.
0735: E353                ;                   
0736: E353                ;   Entry point to get a command line from the console.
0737: E353                ;                   
0738: E353                CMMND1:             
0739: E353     3179E7     	LXI			SP,CCPStack			; set stack straight.
0740: E356     CD95E0     	CALL		CRLF				; start a new line on the screen.
0741: E359     CDCDE1     	CALL		GETDSK				; get current drive.
0742: E35C     C641       	ADI			041H				; 'A' make it printable
0743: E35E     CD89E0     	CALL		PRINT				; print current drive.
0744: E361     3E3E       	MVI			A,GRTTHAN			; '>'
0745: E363     CD89E0     	CALL		PRINT				; and add prompt.
0746: E366     CD36E1     	CALL		InputLine				; get line from user.
0747: E369                ;                   
0748: E369                ;   Process command line here.
0749: E369                ;                   
0750: E369                CMMND2:             
0751: E369     118000     	LXI	D,Pg0Buffer    
0752: E36C     CDD5E1     	CALL	DMASET	;set standard dma address.
0753: E36F     CDCDE1     	CALL	GETDSK        
0754: E372     32BDE7     	STA	CDRIVE	;set current drive.
0755: E375     CD47E2     	CALL	CONVFST	;convert name typed in.
0756: E378     C4F2E1     	CNZ	SYNERR	;wild cards are not allowed.
0757: E37B     3ABEE7     	LDA	ChangeDriveFlag	;if a change in drives was indicated,
0758: E37E     B7         	ORA	A	;then treat this as an unknown command
0759: E37F     C276E6     	JNZ	UNKNOWN	;which gets executed.
0760: E382     CD01E3     	CALL	SEARCH	;else search command table for a match.
0761: E385                ;                   
0762: E385                ;   Note that an unknown command returns
0763: E385                ; with (A) pointing to the last address
0764: E385                ; in our table which is (UNKNOWN).
0765: E385                ;                   
0766: E385     2192E3     	LXI	H,CMDADR;now, look thru our address table for command (A).
0767: E388     5F         	MOV	E,A	;set (DE) to command number.
0768: E389     1600       	MVI	D,0            
0769: E38B     19         	DAD	D              
0770: E38C     19         	DAD	D	;(HL)=(CMDADR)+2*(command number).
0771: E38D     7E         	MOV	A,M	;now pick out this address.
0772: E38E     23         	INX	H              
0773: E38F     66         	MOV	H,M            
0774: E390     6F         	MOV	L,A            
0775: E391     E9         	PCHL		;now execute it.
0776: E392                ;                   
0777: E392                ;   CP/M command address table.
0778: E392                ;                   
0779: E392                CMDADR:             
0780: E392     48E4       	DW	DIRECT		; 0     
0781: E394     F0E4       	DW	ERASE		; 1      
0782: E396     2EE5       	DW	TYPE		; 2       
0783: E398     7EE5       	DW	SAVE		; 3       
0784: E39A     E1E5       	DW	RENAME		; 4     
0785: E39C     5FE6       	DW	USER		; 5       
0786: E39E     76E6       	DW	UNKNOWN		; 6    
0787: E3A0                ;                   
0788: E3A0                ;   Halt the system. Reason for this is unknown at present.
0789: E3A0                ;                   
0790: E3A0                HALT:               
0791: E3A0     21F376     	LXI	H,76F3H	;'DI HLT' instructions.
0792: E3A3     2200E0     	SHLD	CBASE         
0793: E3A6     2100E0     	LXI	H,CBASE        
0794: E3A9     E9         	PCHL               
0795: E3AA                ;                   
0796: E3AA                ;   Read error while TYPEing a file.
0797: E3AA                ;                   
0798: E3AA                RDERROR:            
0799: E3AA     01B0E3     	LXI	B,RDERR        
0800: E3AD     C3A4E0     	JMP	PLINE          
0801: E3B0                RDERR:              
0802: E3B0     52454144204552524F5200 	DB	'Read error',0  
0803: E3BB                ;                   
0804: E3BB                ;   Required file was not located.
0805: E3BB                ;                   
0806: E3BB                                    
0807: E3BB                NONE:               
0808: E3BB     01C1E3     	LXI	B,NOFILE       
0809: E3BE     C3A4E0     	JMP	PLINE          
0810: E3C1                NOFILE:             
0811: E3C1     4E4F2046494C4500 	DB	'No file',EndOfMessage
0812: E3C9                ;                   
0813: E3C9                ;   Decode a command of the form 'A>filename number{ filename}.
0814: E3C9                ; Note that a drive specifier is not allowed on the first file
0815: E3C9                ; name. On return, the number is in register (A). Any error
0816: E3C9                ; causes 'filename?' to be printed and the command is aborted.
0817: E3C9                ;                   
0818: E3C9                DECODE:             
0819: E3C9     CD47E2     	CALL	CONVFST		;convert first filename.
0820: E3CC     3ABEE7     	LDA		ChangeDriveFlag		;do not allow a drive to be specified.
0821: E3CF     B7         	ORA		A             
0822: E3D0     C2F2E1     	JNZ		SYNERR		; exit with a syntax error
0823: E3D3     219CE7     	LXI		H,FCBfromCCP+1		;convert number now.
0824: E3D6     010B00     	LXI		B,11		;(B)=sum register, (C)=max digit count.
0825: E3D9                DECODE1:            
0826: E3D9     7E         	MOV		A,M			; get the caracter from the CCP FCB
0827: E3DA     FE20       	CPI		BLANK		; a space terminates the numeral.
0828: E3DC     CA04E4     	JZ		PADNUMBER	; skip, the rest must be blanks
0829: E3DF     23         	INX		H			; bump pointer
0830: E3E0     D630       	SUI		030H  		; '0'	make binary from ascii. ZERO ????
0831: E3E2     FE0A       	CPI		10			; legal digit?
0832: E3E4     D2F2E1     	JNC		SYNERR		; exit with syntax error
0833: E3E7     57         	MOV		D,A			; yes, save the number in (D).
0834: E3E8                	;                  
0835: E3E8     78         	MOV		A,B			; compute (B)=(B)*10 and check for overflow.
0836: E3E9     E6E0       	ANI		0E0H          
0837: E3EB     C2F2E1     	JNZ		SYNERR		; Exit with math overflow error??
0838: E3EE     78         	MOV		A,B           
0839: E3EF     07         	RLC                
0840: E3F0     07         	RLC                
0841: E3F1     07         	RLC					;(A)=(B)*8 
0842: E3F2     80         	ADD		B			;.......*9
0843: E3F3     DAF2E1     	JC		SYNERR		; Exit with math overflow error??	
0844: E3F6     80         	ADD		B			;.......*10
0845: E3F7     DAF2E1     	JC		SYNERR		; Exit with math overflow error??
0846: E3FA     82         	ADD		D			;	add in new digit now.
0847: E3FB     DAF2E1     	JC		SYNERR		; Exit with math overflow error??
0848: E3FE     47         	MOV		B,A			;	and save result in B (subtotal)
0849: E3FF     0D         	DCR		C			;	only look at 11 digits.
0850: E400     C2D9E3     	JNZ		DECODE1       
0851: E403     C9         	RET					; return with value in (A)
0852: E404                PADNUMBER:          
0853: E404     7E         	MOV		A,M			; spaces must follow (why?).
0854: E405     FE20       	CPI		BLANK		; is it a blank
0855: E407     C2F2E1     	JNZ		SYNERR		; exit with syntax error
0856: E40A     23         	INX		H			; point at next
0857: E40B     0D         	DCR		C             
0858: E40C     C204E4     	JNZ		PADNUMBER	; loop till done
0859: E40F     78         	MOV		A,B			;set (A)=the numeric value entered.
0860: E410     C9         	RET                
0861: E411                ;                   
0862: E411                ;   Move 3 bytes from (HL) to (DE). Note that there is only
0863: E411                ; one reference to this at (A2D5h).
0864: E411                ;                   
0865: E411                MOVE3:              
0866: E411     0603       	MVI	B,3            
0867: E413                ;                   
0868: E413                ;   Move (B) bytes from (HL) to (DE).
0869: E413                ;                   
0870: E413                HL2DE:              
0871: E413     7E         	MOV	A,M            
0872: E414     12         	STAX	D             
0873: E415     23         	INX	H              
0874: E416     13         	INX	D              
0875: E417     05         	DCR	B              
0876: E418     C213E4     	JNZ	HL2DE          
0877: E41B     C9         	RET                
0878: E41C                ;                   
0879: E41C                ;   Compute (HL)=(Pg0Buffer)+(A)+(C) and get the byte that's here.
0880: E41C                ;                   
0881: E41C                EXTRACT:            
0882: E41C     218000     	LXI	H,Pg0Buffer    
0883: E41F     81         	ADD	C              
0884: E420     CD42E2     	CALL	AddAtoHL      
0885: E423     7E         	MOV	A,M            
0886: E424     C9         	RET                
0887: E425                ;                   
0888: E425                ;  Check drive specified. If it means a change, then the new
0889: E425                ; drive will be selected. In any case, the drive byte of the
0890: E425                ; fcb will be set to null (means use current drive).
0891: E425                ;                   
0892: E425                DSELECT:            
0893: E425     AF         	XRA		A             
0894: E426     329BE7     	STA		FCBfromCCP			; null out first byte of fcb.
0895: E429     3ABEE7     	LDA		ChangeDriveFlag			; is a drive change indicated?
0896: E42C     B7         	ORA		A             
0897: E42D     C8         	RZ						; No, drive OK
0898: E42E     3D         	DCR		A				; yes, is it the same as the current drive?
0899: E42F     21BDE7     	LXI		H,CDRIVE      
0900: E432     BE         	CMP		M				; FCB drive number same as this?
0901: E433     C8         	RZ						; Yes, return 					
0902: E434     C3BAE0     	JMP		DSKSEL			;	no. Select it then.
0903: E437                ;                   
0904: E437                ;   Check the drive selection and reset it to the previous
0905: E437                ; drive if it was changed for the preceeding command.
0906: E437                ;                   
0907: E437                RESETDR:            
0908: E437     3ABEE7     	LDA	ChangeDriveFlag	;drive change indicated?
0909: E43A     B7         	ORA	A              
0910: E43B     C8         	RZ                 
0911: E43C     3D         	DCR	A	;yes, was it a different drive?
0912: E43D     21BDE7     	LXI	H,CDRIVE       
0913: E440     BE         	CMP	M              
0914: E441     C8         	RZ                 
0915: E442     3ABDE7     	LDA	CDRIVE	;yes, re-select our old drive.
0916: E445     C3BAE0     	JMP	DSKSEL         
0917: E448                ;                   
0918: E448                ;**************************************************************
0919: E448                ;*                  
0920: E448                ;*           D I R E C T O R Y   C O M M A N D
0921: E448                ;*                  
0922: E448                ;**************************************************************
0923: E448                ;                   
0924: E448                DIRECT:             
0925: E448     CD47E2     	CALL	CONVFST	;convert file name.
0926: E44B     CD25E4     	CALL	DSELECT	;select indicated drive.
0927: E44E     219CE7     	LXI	H,FCBfromCCP+1	;was any file indicated?
0928: E451     7E         	MOV	A,M            
0929: E452     FE20       	CPI	BLANK          
0930: E454     C260E4     	JNZ	DIRECT2        
0931: E457     060B       	MVI	B,11	;no. Fill field with '?' - same as *.*.
0932: E459                DIRECT1:            
0933: E459     363F       	MVI	M,QMARK		; '?' 
0934: E45B     23         	INX	H              
0935: E45C     05         	DCR	B              
0936: E45D     C259E4     	JNZ	DIRECT1        
0937: E460                DIRECT2:            
0938: E460     1E00       	MVI	E,0	;set initial cursor position.
0939: E462     D5         	PUSH	D             
0940: E463     CDE6E0     	CALL	SRCHFCB	;get first file name.
0941: E466     CCBBE3     	CZ	NONE	;none found at all?
0942: E469                DIRECT3:            
0943: E469     CAECE4     	JZ	DIRECT9	;terminate if no more names.
0944: E46C     3ABCE7     	LDA	RTNCODE	;get file's position in segment (0-3).
0945: E46F     0F         	RRC                
0946: E470     0F         	RRC                
0947: E471     0F         	RRC                
0948: E472     E660       	ANI	60H	;(A)=position*32
0949: E474     4F         	MOV	C,A            
0950: E475     3E0A       	MVI	A,10           
0951: E477     CD1CE4     	CALL	EXTRACT	;extract the tenth entry in fcb.
0952: E47A     17         	RAL		;check system file status bit.
0953: E47B     DAE0E4     	JC	DIRECT8	;we don't list them.
0954: E47E     D1         	POP	D              
0955: E47F     7B         	MOV	A,E	;bump name count.
0956: E480     1C         	INR	E              
0957: E481     D5         	PUSH	D             
0958: E482     E603       	ANI	03H	;at end of line?
0959: E484     F5         	PUSH	PSW           
0960: E485     C29DE4     	JNZ	DIRECT4        
0961: E488     CD95E0     	CALL	CRLF	;yes, end this line and start another.
0962: E48B     C5         	PUSH	B             
0963: E48C     CDCDE1     	CALL	GETDSK	;start line with ('A:').
0964: E48F     C1         	POP	B              
0965: E490     C641       	ADI	041H	; 'A'     
0966: E492     CD8FE0     	CALL	PRINTB        
0967: E495     3E3A       	MVI	A, COLON		; ':'
0968: E497     CD8FE0     	CALL	PRINTB        
0969: E49A     C3A5E4     	JMP	DIRECT5        
0970: E49D                DIRECT4:            
0971: E49D     CD9FE0     	CALL	SPACE	;add seperator between file names.
0972: E4A0     3E3A       	MVI	A, COLON	;':'  
0973: E4A2     CD8FE0     	CALL	PRINTB        
0974: E4A5                DIRECT5:            
0975: E4A5     CD9FE0     	CALL	SPACE         
0976: E4A8     0601       	MVI	B,1	;'extract' each file name character at a time.
0977: E4AA                DIRECT6:            
0978: E4AA     78         	MOV	A,B            
0979: E4AB     CD1CE4     	CALL	EXTRACT       
0980: E4AE     E67F       	ANI	7FH	;strip bit 7 (status bit).
0981: E4B0     FE20       	CPI	BLANK	;are we at the end of the name?
0982: E4B2     C2CAE4     	JNZ	DRECT65        
0983: E4B5     F1         	POP	PSW	;yes, don't print spaces at the end of a line.
0984: E4B6     F5         	PUSH	PSW           
0985: E4B7     FE03       	CPI	3              
0986: E4B9     C2C8E4     	JNZ	DRECT63        
0987: E4BC     3E09       	MVI	A,9	;first check for no extension.
0988: E4BE     CD1CE4     	CALL	EXTRACT       
0989: E4C1     E67F       	ANI	7FH            
0990: E4C3     FE20       	CPI	BLANK          
0991: E4C5     CADFE4     	JZ	DIRECT7	;don't print spaces.
0992: E4C8                DRECT63:            
0993: E4C8     3E20       	MVI	A,BLANK	;else print them.
0994: E4CA                DRECT65:            
0995: E4CA     CD8FE0     	CALL	PRINTB        
0996: E4CD     04         	INR	B	;bump to next character psoition.
0997: E4CE     78         	MOV	A,B            
0998: E4CF     FE0C       	CPI	12	;end of the name?
0999: E4D1     D2DFE4     	JNC	DIRECT7        
1000: E4D4     FE09       	CPI	9	;nope, starting extension?
1001: E4D6     C2AAE4     	JNZ	DIRECT6        
1002: E4D9     CD9FE0     	CALL	SPACE	;yes, add seperating space.
1003: E4DC     C3AAE4     	JMP	DIRECT6        
1004: E4DF                DIRECT7:            
1005: E4DF     F1         	POP	PSW	;get the next file name.
1006: E4E0                DIRECT8:            
1007: E4E0     CDBFE1     	CALL	CHKCON	;first check console, quit on anything.
1008: E4E3     C2ECE4     	JNZ	DIRECT9        
1009: E4E6     CDE1E0     	CALL	SRCHNXT	;get next name.
1010: E4E9     C369E4     	JMP	DIRECT3	;and continue with our list.
1011: E4EC                DIRECT9:            
1012: E4EC     D1         	POP	D	;restore the stack and return to command level.
1013: E4ED     C354E7     	JMP	GETBACK        
1014: E4F0                ;                   
1015: E4F0                ;**************************************************************
1016: E4F0                ;*                  
1017: E4F0                ;*                E R A S E   C O M M A N D
1018: E4F0                ;*                  
1019: E4F0                ;**************************************************************
1020: E4F0                ;                   
1021: E4F0                ERASE:              
1022: E4F0     CD47E2     	CALL	CONVFST	;convert file name.
1023: E4F3     FE0B       	CPI	11	;was '*.*' entered?
1024: E4F5     C213E5     	JNZ	ERASE1         
1025: E4F8     0123E5     	LXI	B,YESNO	;yes, ask for confirmation.
1026: E4FB     CDA4E0     	CALL	PLINE         
1027: E4FE     CD36E1     	CALL	InputLine     
1028: E501     2107E0     	LXI	H,InBuffCount  
1029: E504     35         	DCR	M	;must be exactly 'y'.
1030: E505     C253E3     	JNZ	CMMND1         
1031: E508     23         	INX	H              
1032: E509     7E         	MOV	A,M            
1033: E50A     FE59       	CPI	059H	; 'Y'     
1034: E50C     C253E3     	JNZ	CMMND1         
1035: E50F     23         	INX	H              
1036: E510     2285E0     	SHLD	InBuffAddress	;save input line pointer.
1037: E513                ERASE1:             
1038: E513     CD25E4     	CALL	DSELECT	;select desired disk.
1039: E516     119BE7     	LXI	D,FCBfromCCP   
1040: E519     CDECE0     	CALL	DELETE	;delete the file.
1041: E51C     3C         	INR	A              
1042: E51D     CCBBE3     	CZ	NONE	;not there?
1043: E520     C354E7     	JMP	GETBACK	;return to command level now.
1044: E523                YESNO:              
1045: E523     414C4C2028592F4E293F00 	DB	'All (y/n)?',0  
1046: E52E                ;                   
1047: E52E                ;**************************************************************
1048: E52E                ;*                  
1049: E52E                ;*            T Y P E   C O M M A N D
1050: E52E                ;*                  
1051: E52E                ;**************************************************************
1052: E52E                ;                   
1053: E52E                TYPE:               
1054: E52E     CD47E2     	CALL	CONVFST	;convert file name.
1055: E531     C2F2E1     	JNZ	SYNERR	;wild cards not allowed.
1056: E534     CD25E4     	CALL	DSELECT	;select indicated drive.
1057: E537     CDCDE0     	CALL	OPENFCB	;open the file.
1058: E53A     CA78E5     	JZ	TYPE5	;not there?
1059: E53D     CD95E0     	CALL	CRLF	;ok, start a new line on the screen.
1060: E540     21BFE7     	LXI	H,NBYTES;initialize byte counter.
1061: E543     36FF       	MVI	M,0FFH	;set to read first sector.
1062: E545                TYPE1:              
1063: E545     21BFE7     	LXI	H,NBYTES       
1064: E548                TYPE2:              
1065: E548     7E         	MOV	A,M	;have we written the entire sector?
1066: E549     FE80       	CPI	LogicalSecSize 
1067: E54B     DA58E5     	JC	TYPE3           
1068: E54E     E5         	PUSH	H	;yes, read in the next one.
1069: E54F     CDFBE0     	CALL	READFCB       
1070: E552     E1         	POP	H              
1071: E553     C271E5     	JNZ	TYPE4	;end or error?
1072: E556     AF         	XRA	A	;ok, clear byte counter.
1073: E557     77         	MOV	M,A            
1074: E558                TYPE3:              
1075: E558     34         	INR	M	;count this byte.
1076: E559     218000     	LXI	H,Pg0Buffer	;and get the (A)th one from the buffer (Pg0Buffer).
1077: E55C     CD42E2     	CALL	AddAtoHL      
1078: E55F     7E         	MOV	A,M            
1079: E560     FE1A       	CPI	CNTRLZ	;end of file mark?
1080: E562     CA54E7     	JZ	GETBACK         
1081: E565     CD89E0     	CALL	PRINT	;no, print it.
1082: E568     CDBFE1     	CALL	CHKCON	;check console, quit if anything ready.
1083: E56B     C254E7     	JNZ	GETBACK        
1084: E56E     C345E5     	JMP	TYPE1          
1085: E571                ;                   
1086: E571                ;   Get here on an end of file or read error.
1087: E571                ;                   
1088: E571                TYPE4:              
1089: E571     3D         	DCR	A	;read error? 
1090: E572     CA54E7     	JZ	GETBACK         
1091: E575     CDAAE3     	CALL	RDERROR	;yes, print message.
1092: E578                TYPE5:              
1093: E578     CD37E4     	CALL	RESETDR	;and reset proper drive
1094: E57B     C3F2E1     	JMP	SYNERR	;now print file name with problem.
1095: E57E                ;                   
1096: E57E                ;**************************************************************
1097: E57E                ;*                  
1098: E57E                ;*            S A V E   C O M M A N D
1099: E57E                ;*                  
1100: E57E                ;**************************************************************
1101: E57E                ;                   
1102: E57E                SAVE:               
1103: E57E     CDC9E3     	CALL	DECODE		; get numeric number that follows SAVE.
1104: E581     F5         	PUSH	PSW			; save number of pages to write.
1105: E582     CD47E2     	CALL	CONVFST		; convert file name linepointer past the number.
1106: E585     C2F2E1     	JNZ		SYNERR		; exit with syntax error -wild cards not allowed.
1107: E588     CD25E4     	CALL	DSELECT		; select specified drive.
1108: E58B     119BE7     	LXI		D,FCBfromCCP	; now delete this file.
1109: E58E     D5         	PUSH	D			; save the fcb
1110: E58F     CDECE0     	CALL	DELETE        
1111: E592     D1         	POP		D             
1112: E593     CD06E1     	CALL	CREATE		;and create it again.
1113: E596     CACCE5     	JZ		SAVE3		;can't create?
1114: E599     AF         	XRA		A			;clear record number byte.
1115: E59A     32BBE7     	STA		FCBfromCCP+32 
1116: E59D     F1         	POP		PSW			;convert pages to sectors.
1117: E59E     6F         	MOV		L,A           
1118: E59F     2600       	MVI		H,0           
1119: E5A1     29         	DAD		H			;(HL)=number of sectors to write.
1120: E5A2     110001     	LXI		D,TBASE		;and we start from here.
1121: E5A5                SAVE1:              
1122: E5A5     7C         	MOV		A,H			;done yet?
1123: E5A6     B5         	ORA		L             
1124: E5A7     CAC2E5     	JZ		SAVE2          
1125: E5AA     2B         	DCX		H			;nope, count this and compute the start
1126: E5AB     E5         	PUSH	H			;of the next 128 byte sector.
1127: E5AC     218000     	LXI		H,LogicalSecSize
1128: E5AF     19         	DAD		D             
1129: E5B0     E5         	PUSH	H			;save it and set the transfer address.
1130: E5B1     CDD5E1     	CALL	DMASET        
1131: E5B4     119BE7     	LXI		D,FCBfromCCP	;write out this sector now.
1132: E5B7     CD01E1     	CALL	WRTREC        
1133: E5BA     D1         	POP		D			;reset (DE) to the start of the last sector.
1134: E5BB     E1         	POP		H			;restore sector count.
1135: E5BC     C2CCE5     	JNZ		SAVE3		;write error?
1136: E5BF     C3A5E5     	JMP		SAVE1         
1137: E5C2                ;                   
1138: E5C2                ;   Get here after writing all of the file.
1139: E5C2                ;                   
1140: E5C2                SAVE2:              
1141: E5C2     119BE7     	LXI		D,FCBfromCCP	;now close the file.
1142: E5C5     CDD7E0     	CALL	CLOSE         
1143: E5C8     3C         	INR		A			;did it close ok?
1144: E5C9     C2D2E5     	JNZ		SAVE4         
1145: E5CC                ;                   
1146: E5CC                ;   Print out error message (no space).
1147: E5CC                ;                   
1148: E5CC                SAVE3:              
1149: E5CC     01D8E5     	LXI		B,NOSPACE     
1150: E5CF     CDA4E0     	CALL	PLINE         
1151: E5D2                SAVE4:              
1152: E5D2     CDD2E1     	CALL	STDDMA		;reset the standard dma address.
1153: E5D5     C354E7     	JMP		GETBACK       
1154: E5D8                NOSPACE:            
1155: E5D8     4E4F20535041434500 	DB	'No space',0    
1156: E5E1                ;                   
1157: E5E1                ;**************************************************************
1158: E5E1                ;*                  
1159: E5E1                ;*           R E N A M E   C O M M A N D
1160: E5E1                ;*                  
1161: E5E1                ;**************************************************************
1162: E5E1                ;                   
1163: E5E1                RENAME:             
1164: E5E1     CD47E2     	CALL	CONVFST	;convert first file name.
1165: E5E4     C2F2E1     	JNZ	SYNERR	;wild cards not allowed.
1166: E5E7     3ABEE7     	LDA	ChangeDriveFlag	;remember any change in drives specified.
1167: E5EA     F5         	PUSH	PSW           
1168: E5EB     CD25E4     	CALL	DSELECT	;and select this drive.
1169: E5EE     CDE6E0     	CALL	SRCHFCB	;is this file present?
1170: E5F1     C24AE6     	JNZ	RENAME6	;yes, print error message.
1171: E5F4     219BE7     	LXI	H,FCBfromCCP;yes, move this name into second slot.
1172: E5F7     11ABE7     	LXI	D,FCBfromCCP+16
1173: E5FA     0610       	MVI	B,16           
1174: E5FC     CD13E4     	CALL	HL2DE         
1175: E5FF     2A85E0     	LHLD	InBuffAddress	;get input pointer.
1176: E602     EB         	XCHG               
1177: E603     CD38E2     	CALL	NextNonBlankChar;get next non blank character.
1178: E606     FE3D       	CPI	EQUALS		; '='	;only allow an '=' or '_' seperator.
1179: E608     CA10E6     	JZ	RENAME1         
1180: E60B     FE5F       	CPI	USCORE		; '_'  
1181: E60D     C244E6     	JNZ	RENAME5        
1182: E610                RENAME1:            
1183: E610     EB         	XCHG               
1184: E611     23         	INX	H	;ok, skip seperator.
1185: E612     2285E0     	SHLD	InBuffAddress	;save input line pointer.
1186: E615     CD47E2     	CALL	CONVFST	;convert this second file name now.
1187: E618     C244E6     	JNZ	RENAME5	;again, no wild cards.
1188: E61B     F1         	POP	PSW	;if a drive was specified, then it
1189: E61C     47         	MOV	B,A	;must be the same as before.
1190: E61D     21BEE7     	LXI	H,ChangeDriveFlag
1191: E620     7E         	MOV	A,M            
1192: E621     B7         	ORA	A              
1193: E622     CA2AE6     	JZ	RENAME2         
1194: E625     B8         	CMP	B              
1195: E626     70         	MOV	M,B            
1196: E627     C244E6     	JNZ	RENAME5	;they were different, error.
1197: E62A                RENAME2:            
1198: E62A     70         	MOV	M,B;	reset as per the first file specification.
1199: E62B     AF         	XRA	A              
1200: E62C     329BE7     	STA	FCBfromCCP;clear the drive byte of the fcb.
1201: E62F                RENAME3:            
1202: E62F     CDE6E0     	CALL	SRCHFCB	;and go look for second file.
1203: E632     CA3EE6     	JZ	RENAME4	;doesn't exist?
1204: E635     119BE7     	LXI	D,FCBfromCCP   
1205: E638     CD0BE1     	CALL	RENAM	;ok, rename the file.
1206: E63B     C354E7     	JMP	GETBACK        
1207: E63E                ;                   
1208: E63E                ;   Process rename errors here.
1209: E63E                ;                   
1210: E63E                RENAME4:            
1211: E63E     CDBBE3     	CALL	NONE	;file not there.
1212: E641     C354E7     	JMP	GETBACK        
1213: E644                RENAME5:            
1214: E644     CD37E4     	CALL	RESETDR	;bad command format.
1215: E647     C3F2E1     	JMP	SYNERR         
1216: E64A                RENAME6:            
1217: E64A     0153E6     	LXI	B,EXISTS;destination file already exists.
1218: E64D     CDA4E0     	CALL	PLINE         
1219: E650     C354E7     	JMP	GETBACK        
1220: E653                EXISTS:             
1221: E653     46494C452045584953545300 	DB	'File exists',0 
1222: E65F                ;                   
1223: E65F                ;**************************************************************
1224: E65F                ;*                  
1225: E65F                ;*             U S E R   C O M M A N D
1226: E65F                ;*                  
1227: E65F                ;**************************************************************
1228: E65F                ;                   
1229: E65F                USER:               
1230: E65F     CDC9E3     	CALL	DECODE	;get numeric value following command.
1231: E662     FE10       	CPI	16	;legal user number?
1232: E664     D2F2E1     	JNC	SYNERR         
1233: E667     5F         	MOV	E,A	;yes but is there anything else?
1234: E668     3A9CE7     	LDA	FCBfromCCP+1   
1235: E66B     FE20       	CPI	BLANK          
1236: E66D     CAF2E1     	JZ	SYNERR	;yes, that is not allowed.
1237: E670     CD12E1     	CALL	GetSetCurrentUser;ok, set user code.
1238: E673     C357E7     	JMP	GETBACK1       
1239: E676                ;                   
1240: E676                ;**************************************************************
1241: E676                ;*                  
1242: E676                ;*        T R A N S I A N T   P R O G R A M   C O M M A N D
1243: E676                ;*                  
1244: E676                ;**************************************************************
1245: E676                ;                   
1246: E676                UNKNOWN:            
1247: E676                ;e68b	CALL	VERIFY	;check for valid system (why?).
1248: E676     3A9CE7     	LDA		FCBfromCCP+1		;anything to execute?
1249: E679     FE20       	CPI		BLANK		; is it a Space?
1250: E67B     C292E6     	JNZ		UNKWN1        
1251: E67E     3ABEE7     	LDA		ChangeDriveFlag		; No, only a drive change?
1252: E681     B7         	ORA		A			; Is itEmpty (00)
1253: E682     CA57E7     	JZ		GETBACK1	; Yes, get otta here?
1254: E685     3D         	DCR		A             
1255: E686     32BDE7     	STA	CDRIVE	;ok, store new drive.
1256: E689     CD26E1     	CALL	MOVECD	;set (TDRIVE) also.
1257: E68C     CDBAE0     	CALL	DSKSEL	;and select this drive.
1258: E68F     C357E7     	JMP	GETBACK1;then return.
1259: E692                ;                   
1260: E692                ;   Here a file name was typed. Prepare to execute it.
1261: E692                ;                   
1262: E692                UNKWN1:             
1263: E692     11A4E7     	LXI	D,FCBfromCCP+9	;an extension specified?
1264: E695     1A         	LDAX	D             
1265: E696     FE20       	CPI	BLANK          
1266: E698     C2F2E1     	JNZ	SYNERR	;yes, not allowed.
1267: E69B                UNKWN2:             
1268: E69B     D5         	PUSH	D             
1269: E69C     CD25E4     	CALL	DSELECT	;select specified drive.
1270: E69F     D1         	POP	D              
1271: E6A0     2151E7     	LXI	H,COMFILE	;set the extension to 'COM'.
1272: E6A3     CD11E4     	CALL	MOVE3         
1273: E6A6     CDCDE0     	CALL	OPENFCB	;and open this file.
1274: E6A9     CA39E7     	JZ	UNKWN9	;not present?
1275: E6AC                ;                   
1276: E6AC                ;   Load in the program.
1277: E6AC                ;                   
1278: E6AC     210001     	LXI	H,TBASE	;store the program starting here.
1279: E6AF                UNKWN3:             
1280: E6AF     E5         	PUSH	H             
1281: E6B0     EB         	XCHG               
1282: E6B1     CDD5E1     	CALL	DMASET	;set transfer address.
1283: E6B4     119BE7     	LXI	D,FCBfromCCP;and read the next record.
1284: E6B7     CDF6E0     	CALL	RDREC         
1285: E6BA     C2CFE6     	JNZ	UNKWN4	;end of file or read error?
1286: E6BD     E1         	POP	H	;nope, bump pointer for next sector.
1287: E6BE     118000     	LXI	D,LogicalSecSize
1288: E6C1     19         	DAD	D              
1289: E6C2     1100E0     	LXI	D,CBASE	;enough room for the whole file?
1290: E6C5     7D         	MOV	A,L            
1291: E6C6     93         	SUB	E              
1292: E6C7     7C         	MOV	A,H            
1293: E6C8     9A         	SBB	D              
1294: E6C9     D23FE7     	JNC	UNKWN0	;no, it can't fit.
1295: E6CC     C3AFE6     	JMP	UNKWN3         
1296: E6CF                ;                   
1297: E6CF                ;   Get here after finished reading.
1298: E6CF                ;                   
1299: E6CF                UNKWN4:             
1300: E6CF     E1         	POP	H              
1301: E6D0     3D         	DCR	A	;normal end of file?
1302: E6D1     C23FE7     	JNZ	UNKWN0         
1303: E6D4     CD37E4     	CALL	RESETDR	;yes, reset previous drive.
1304: E6D7     CD47E2     	CALL	CONVFST	;convert the first file name that follows
1305: E6DA     21BEE7     	LXI	H,ChangeDriveFlag;command name.
1306: E6DD     E5         	PUSH	H             
1307: E6DE     7E         	MOV	A,M	;set drive code in default fcb.
1308: E6DF     329BE7     	STA	FCBfromCCP     
1309: E6E2     3E10       	MVI	A,16	;put second name 16 bytes later.
1310: E6E4     CD49E2     	CALL	CONVERT	;convert second file name.
1311: E6E7     E1         	POP	H              
1312: E6E8     7E         	MOV	A,M	;and set the drive for this second file.
1313: E6E9     32ABE7     	STA	FCBfromCCP+16  
1314: E6EC     AF         	XRA	A	;clear record byte in fcb.
1315: E6ED     32BBE7     	STA	FCBfromCCP+32  
1316: E6F0     115C00     	LXI	D,DefaultFCB	;move it into place at(005Ch).
1317: E6F3     219BE7     	LXI	H,FCBfromCCP   
1318: E6F6     0621       	MVI	B,33           
1319: E6F8     CD13E4     	CALL	HL2DE         
1320: E6FB     2108E0     	LXI	H,InBuff			;now move the remainder of the input
1321: E6FE                UNKWN5:             
1322: E6FE     7E         	MOV	A,M	;line down to (0080h). Look for a non blank.
1323: E6FF     B7         	ORA	A	;or a null.  
1324: E700     CA0CE7     	JZ	UNKWN6          
1325: E703     FE20       	CPI	BLANK          
1326: E705     CA0CE7     	JZ	UNKWN6          
1327: E708     23         	INX	H              
1328: E709     C3FEE6     	JMP	UNKWN5         
1329: E70C                ;                   
1330: E70C                ;   Do the line move now. It ends in a null byte.
1331: E70C                ;                   
1332: E70C                UNKWN6:             
1333: E70C     0600       	MVI	B,0	;keep a character count.
1334: E70E     118100     	LXI	D,Pg0Buffer+1;data gets put here.
1335: E711                UNKWN7:             
1336: E711     7E         	MOV	A,M	;move it now.
1337: E712     12         	STAX	D             
1338: E713     B7         	ORA	A              
1339: E714     CA1DE7     	JZ	UNKWN8          
1340: E717     04         	INR	B              
1341: E718     23         	INX	H              
1342: E719     13         	INX	D              
1343: E71A     C311E7     	JMP	UNKWN7         
1344: E71D                UNKWN8:             
1345: E71D     78         	MOV	A,B	;now store the character count.
1346: E71E     328000     	STA	Pg0Buffer      
1347: E721     CD95E0     	CALL	CRLF	;clean up the screen.
1348: E724     CDD2E1     	CALL	STDDMA	;set standard transfer address.
1349: E727     CD17E1     	CALL	SetCurrentDrive	;reset current drive.
1350: E72A     CD0001     	CALL	TBASE	;and execute the program.
1351: E72D                ;                   
1352: E72D                ;   Transiant programs return here (or reboot).
1353: E72D                ;                   
1354: E72D     3179E7     	LXI	SP,BatchFlag	;set stack first off.
1355: E730     CD26E1     	CALL	MOVECD	;move current drive into place (TDRIVE).
1356: E733     CDBAE0     	CALL	DSKSEL	;and reselect it.
1357: E736     C353E3     	JMP	CMMND1	;back to comand mode.
1358: E739                ;                   
1359: E739                ;   Get here if some error occured.
1360: E739                ;                   
1361: E739                UNKWN9:             
1362: E739     CD37E4     	CALL	RESETDR	;inproper format.
1363: E73C     C3F2E1     	JMP	SYNERR         
1364: E73F                UNKWN0:             
1365: E73F     0148E7     	LXI	B,BADLOAD;read error or won't fit.
1366: E742     CDA4E0     	CALL	PLINE         
1367: E745     C354E7     	JMP	GETBACK        
1368: E748                BADLOAD:            
1369: E748     424144204C4F414400 	DB	'Bad load',EndOfMessage
1370: E751                COMFILE:            
1371: E751     434F4D     	DB	'COM'	;command file extension.
1372: E754                ;                   
1373: E754                ;   Get here to return to command level. We will reset the
1374: E754                ; previous active drive and then either return to command
1375: E754                ; level directly or print error message and then return.
1376: E754                ;                   
1377: E754                GETBACK:            
1378: E754     CD37E4     	CALL	RESETDR	;reset previous drive.
1379: E757                GETBACK1:           
1380: E757     CD47E2     	CALL	CONVFST	;convert first name in (FCB).
1381: E75A     3A9CE7     	LDA	FCBfromCCP+1	;if this was just a drive change request,
1382: E75D     D620       	SUI	BLANK	;make sure it was valid.
1383: E75F     21BEE7     	LXI	H,ChangeDriveFlag
1384: E762     B6         	ORA	M              
1385: E763     C2F2E1     	JNZ	SYNERR         
1386: E766     C353E3     	JMP	CMMND1	;ok, return to command level.
1387: E769                ;                   
1388: E769                ;   ccp stack area. 
1389: E769                ;                   
1390: E769     00000000000000000000000000000000 	DB	0,0,0,0,0,0,0,0,0,0,0,0,0,0,0,0
1391: E779                CCPStack	EQU	$	;end of ccp stack area.
1392: E779                ;                   
1393: E779                ;   Batch (or SUBMIT) processing information storage.
1394: E779                ;                   
1395: E779                BatchFlag:          
1396: E779     00         	DB	0	;batch mode flag (0=not active).
1397: E77A                BATCHFCB:           
1398: E77A     002424242020202020535542000000000000000000000000000000000000000000 DB	0,'$$$     SUB',0,0,0,0,0,0,0,0,0,0,0,0,0,0,0,0,0,0,0,0,0
1399: E79B                ;                   
1400: E79B                ;   File control block setup by the CCP.
1401: E79B                ;                   
1402: E79B                FCBfromCCP:         
1403: E79B     002020202020202020202020000000000020202020202020202020200000000000 	DB	0,'           ',0,0,0,0,0,'           ',0,0,0,0,0
1404: E7BC                RTNCODE:            
1405: E7BC     00         	DB	0	;status returned from bdos call.
1406: E7BD                CDRIVE:             
1407: E7BD     00         	DB	0	;currently active drive.
1408: E7BE                ChangeDriveFlag:    
1409: E7BE     00         	DB	0	;change in drives flag (0=no change).
1410: E7BF                NBYTES:             
1411: E7BF     0000       	DW	0	;byte counter used by TYPE.
1412: E7C1                ;                   
1413: E7C1                ;   Room for expansion?
1414: E7C1                ;                   
1415: E7C1     00000000000000000000000000 	DB	0,0,0,0,0,0,0,0,0,0,0,0,0
1416: E7CE                ;                   
1417: E7CE                ;   Note that the following six bytes must match those at
1418: E7CE                ; (PATTRN1) or cp/m will HALT. Why?
1419: E7CE                ;                   
1420: E7CE                ;PATTRN2:           
1421: E7CE                ;	DB	0,22,0,0,0,0;(* serial number bytes *).
1422: E7CE                ;                   
1423: E7CE                ;**************************************************************
1424: E7CE                ;*                  
1425: E7CE                ;*                    B D O S   E N T R Y
1426: E7CE                ;*                  
1427: E7CE                ;**************************************************************
1428: E7CE                ;                   
1429: E7CE                ;   Entry into bdos.
1430: E7CE                ;			Parameters: (DE) or (E) are the parameters passed. The
1431: E7CE                ;						(C) - function number
1432: E7CE                ;	The user's stack is saved (UserStack) 
1433: E7CE                ;	BDOS uses its own stack  (BDOSstack)
1434: E7CE                ;	The Function number is checked
1435: E7CE                ;	The corect routine is calcualted using the FunctionVector and (C)
1436: E7CE                ;                   
1437: E7CE                	ORG  0E806H					; forces - see start of bios fix later
1438: E806                BDOSEntry:          
1439: E806                ;	JMP	BDOSSetup     
1440: E806                ;BDOSSetup:         
1441: E806     EB         	XCHG						; Swap  (DE) and (HL). **23**
1442: E807     223CE8     	SHLD	ParamsDE			; Save (DE)
1443: E80A     EB         	XCHG						; Restore (DE) and (HL) to original values
1444: E80B     7B         	MOV		A,E	          
1445: E80C     323EE8     	STA		ParamE				; Save register (E) in particular.
1446: E80F     210000     	LXI		H,0           
1447: E812     223FE8     	SHLD	StatusBDOSReturn	;clear return status.
1448: E815     39         	DAD		SP            
1449: E816     2241E8     	SHLD	UserStack			; ave users stack pointer.
1450: E819     3173E8     	LXI		SP,BDOSstack		; nd set our own.
1451: E81C     AF         	XRA		A					; lear A for flags resets
1452: E81D     32D7F5     	STA		AutoSelectFlag		; lear auto select storage Flag
1453: E820     32D5F5     	STA		AutoSelectActive	; lear auto select Active Flag
1454: E823     2173E8     	LXI		H,BDOSExit			; et return address to BDOSExit routine
1455: E826     E5         	PUSH	H					; ut it on the stack
1456: E827     79         	MOV		A,C					; get function number and put into A.
1457: E828     FE29       	CPI		FunctionCount + 1	; valid function number?
1458: E82A     D0         	RNC							; Exit if not valid
1459: E82B     4B         	MOV		C,E					; keep single register function value in C.
1460: E82C     219AE8     	LXI		H,FunctionVector	; now look thru the function table.
1461: E82F     5F         	MOV		E,A           
1462: E830     1600       	MVI		D,0					;(DE)=function number.
1463: E832     19         	DAD		D             
1464: E833     19         	DAD		D					;(HL)=(start of table)+2*(function number).
1465: E834     5E         	MOV		E,M           
1466: E835     23         	INX		H             
1467: E836     56         	MOV		D,M					; now (DE)=address for this function.
1468: E837     2A3CE8     	LHLD	ParamsDE			; retrieve parameters.
1469: E83A     EB         	XCHG						;now (DE) has the original parameters.
1470: E83B     E9         	PCHL						;execute desired function.
1471: E83C                ;----------------------------------
1472: E83C     0000       ParamsDE:			DW	0	;(DE) parameters saved here on entry to BDOS.
1473: E83E     00         ParamE:				DB	0	;storage for register (E) on entry to bdos.
1474: E83F     0000       StatusBDOSReturn:	DW	0	;status returned from bdos function.
1475: E841     0000       UserStack:			DW	0	;save users stack pointer here.
1476: E843                ;                   
1477: E843                ;   Stack area for BDOS calls.
1478: E843                ;                   
1479: E843                					DS	030H        
1480: E873                BDOSstack	EQU	$	;end of stack area.
1481: E873                ;----------------------------------
1482: E873                BDOSExit:           
1483: E873     3AD5F5     	LDA	AutoSelectActive	;was auto select activated?
1484: E876     B7         	ORA	A              
1485: E877     CA90E8     	JZ	BDOSExit1       
1486: E87A     2A3CE8     	LHLD	ParamsDE	;yes, but was a change made?
1487: E87D     3600       	MVI	M,0	;(* reset first byte of fcb *)
1488: E87F     3AD7F5     	LDA	AutoSelectFlag 
1489: E882     B7         	ORA	A              
1490: E883     CA90E8     	JZ	BDOSExit1       
1491: E886     77         	MOV	M,A	;yes, reset first byte properly.
1492: E887     3AD6F5     	LDA	OLDDRV	;and get the old drive and select it.
1493: E88A     323EE8     	STA	ParamE         
1494: E88D     CD61F4     	CALL	fcSelectDisk  
1495: E890                BDOSExit1:          
1496: E890     2A41E8     	LHLD		UserStack			;Get  the users stack pointer.
1497: E893     F9         	SPHL		             
1498: E894     2A3FE8     	LHLD		StatusBDOSReturn	;get return status.
1499: E897     7D         	MOV	A,L							;force version 1.4 compatability.
1500: E898     44         	MOV	B,H            
1501: E899     C9         	RET			;and go back to user.
1502: E89A                                    
1503: E89A                	                   
1504: E89A                	                   
1505: E89A                ;                   
1506: E89A                ;   BDOS function jump table.
1507: E89A                ;                   
1508: E89A                ;NFUNCTS	EQU	41	;number of functions in followin table.
1509: E89A                ;                   
1510: E89A                FunctionVector:     
1511: E89A     03F6       	DW	fcSystemReset			;0		Overall system and BDOS reset
1512: E89C     23EB       	DW	fcConsoleIn				;1		Read a byte from the console keyboard
1513: E89E     EBE9       	DW	fcConsoleOut			;2		Write a byte to the console screen
1514: E8A0     29EB       	DW	fcReaderIn				;3		Read a byte from the logical reader device
1515: E8A2     12F6       	DW	fcPunchOut				;4		Write a byte to the logical PUNCH device
1516: E8A4     0FF6       	DW	fcListOut				;5		Write a byte to the logical list device
1517: E8A6     2FEB       	DW	fcDirectConsoleOut		;6		Direct console I/O (no CCP-style editing)
1518: E8A8     48EB       	DW	fcGetIOByte				;7		Read the current setting of the IOBYTE
1519: E8AA     4EEB       	DW	fcSetIOByte				;8		Set a new value of the IOBYTE
1520: E8AC     53EB       	DW	fcConsoleStringOut		;9		Send a "$"-terminated string to the console
1521: E8AE     3CEA       	DW	fcConsoleStringIn		;10		Read a string from the console into a buffer
1522: E8B0     59EB       	DW	fcConsoleStatusIn		;11		Check if a console key is waiting to be read
1523: E8B2     9AF4       	DW	fcGetVersion			;12		Return the CP/M version number
1524: E8B4                	                   
1525: E8B4     9FF4       	DW	fcResetDiskSystem		;13		Reset disk system
1526: E8B6     61F4       	DW	fcSelectDisk			;14		Select specified logical disk drive
1527: E8B8     B8F4       	DW	fcOpenFile				;15		Open specified file for reading/writing
1528: E8BA     C1F4       	DW	fcCloseFile				;16		Close specified file after reading/writing
1529: E8BC     C7F4       	DW	fcSearchForFirst		;17		Search file directory for first match with filename
1530: E8BE     E4F4       	DW	fcSearchForNext			;18		Search file directory for next match with filename
1531: E8C0     F3F4       	DW	fcDeleteFile			;19		Delete (erase) file
1532: E8C2     FCF4       	DW	fcReadSequential		;20		Read the next "record" sequentially
1533: E8C4     02F5       	DW	fcWriteSequential		;21		Write the next "record" sequentially
1534: E8C6     08F5       	DW	fcCreateFile			;22		Create a new file with the specified name
1535: E8C8     11F5       	DW	fcRenameFile			;23		Rename a file to a new name
1536: E8CA     1AF5       	DW	fcGetActiveDisks		;24		Indicate which logical disks are active
1537: E8CC     20F5       	DW	fcGetCurrentDisk		;25		Return the current default disk drive number
1538: E8CE     26F5       	DW	fcSetDMA				;26		Set the DMA address (read/write address)
1539: E8D0     2DF5       	DW	fcGetFATtable			;27		Return the address of an allocation vector
1540: E8D2     35ED       	DW	fcSetDiskRO				;28		Set disk to Read-Only
1541: E8D4     33F5       	DW	fcGetROdisks			;29		Indicate which disks are currently Read-Only status
1542: E8D6     39F5       	DW	fcSetFileAttributes		;30		Set specified file to System or Read-Only status
1543: E8D8     42F5       	DW	fcGetDPB				;31		Return address of disk parameter block (DPB)
1544: E8DA     49F5       	DW	fcGetUser				;32		Set/Get the current user number
1545: E8DC     5DF5       	DW	fcReadRandom			;33		Set/Get the current user number
1546: E8DE     63F5       	DW	fcWriteRandom			;34		Write a "record" randomly
1547: E8E0     69F5       	DW	fcGetFileSize			;35		Return logical file size (even for random files)
1548: E8E2     B6F3       	DW	fcSetRecordNumber		;36		Set record number for the next random read/write
1549: E8E4     6FF5       	DW	fcResetDrive			;37
1550: E8E6     5FEB       	DW	fcReturn				;38		Simple Return
1551: E8E8     5FEB       	DW	fcReturn				;39		Simple Return
1552: E8EA     90F5       	DW	fcWriteZeroFill			;40		Write a "record" randomly with zero fill
1553: E8EC                	                   
1554: E8EC                FunctionCount	EQU	 ($ -FunctionVector)/2
1555: E8EC                                    
1556: E8EC                ;                   
1557: E8EC                ;   Bdos error table.
1558: E8EC                ;                   
1559: E8EC     F4E8       BADSCTR:	DW	ERROR1	;bad sector on read or write.
1560: E8EE     00E9       BADSLCT:	DW	ERROR2	;bad disk select.
1561: E8F0     06E9       RODISK:		DW	ERROR3	;disk is read only.
1562: E8F2     0CE9       ROFILE:		DW	ERROR4	;file is read only.
1563: E8F4                ;                   
1564: E8F4                ;                   
1565: E8F4                ;   Bdos error message section.
1566: E8F4                ;                   
1567: E8F4                ERROR1:             
1568: E8F4     2125E9     	LXI	H,BADSEC	;bad sector message.
1569: E8F7     CD40E9     	CALL	PRTERR	;print it and get a 1 char responce.
1570: E8FA     FE03       	CPI	CNTRLC	;re-boot request (control-c)?
1571: E8FC     CA0000     	JZ	0	;yes.         
1572: E8FF     C9         	RET		;no, return to retry i/o function.
1573: E900                ;                   
1574: E900                ERROR2:             
1575: E900     2130E9     	LXI	H,BADSEL	;bad drive selected.
1576: E903     C30FE9     	JMP	ERROR5         
1577: E906                ;                   
1578: E906                ERROR3:             
1579: E906     213CE9     	LXI	H,DISKRO	;disk is read only.
1580: E909     C30FE9     	JMP	ERROR5         
1581: E90C                ;                   
1582: E90C                ERROR4:             
1583: E90C     2137E9     	LXI	H,FILERO	;file is read only.
1584: E90F                ;                   
1585: E90F                ERROR5:             
1586: E90F     CD40E9     	CALL	PRTERR        
1587: E912     C30000     	JMP	0	;always reboot on these errors.
1588: E915                ;                   
1589: E915     42444F5320455252204F4E20 BDOSERR:	DB	'Bdos Err On '
1590: E921     203A2024   BDOSDRV:	DB	' : $'  
1591: E925     42414420534543544F5224 BADSEC:		DB	'Bad Sector$'
1592: E930     53454C45435424 BADSEL:		DB	'Select$'
1593: E937     46494C4520 FILERO:		DB	'File ' 
1594: E93C     522F4F24   DISKRO:		DB	'R/O$'  
1595: E940                ;                   
1596: E940                ;   Print bdos error message.
1597: E940                ;                   
1598: E940                PRTERR:             
1599: E940     E5         	PUSH	H	;save second message pointer.
1600: E941     CD24EA     	CALL	OUTCRLF	;send (cr)(lf).
1601: E944     3AA2F5     	LDA	CurrentDrive	;get Current Drive drive.
1602: E947     C641       	ADI	041H	; 'A'	;make ascii.
1603: E949     3221E9     	STA	BDOSDRV	;and put in message.
1604: E94C     0115E9     	LXI	B,BDOSERR;and print it.
1605: E94F     CD2EEA     	CALL	PRTMESG       
1606: E952     C1         	POP	B	;print second message line now.
1607: E953     CD2EEA     	CALL	PRTMESG       
1608: E956                ;                   
1609: E956                ;   Get an input character. We will check our 1 character
1610: E956                ; buffer first. This may be set by the console status routine.
1611: E956                ;                   
1612: E956                GETCHAR:            
1613: E956     2169EB     	LXI	H,CHARBUF;check character buffer.
1614: E959     7E         	MOV	A,M	;anything present already?
1615: E95A     3600       	MVI	M,0	;...either case clear it.
1616: E95C     B7         	ORA	A              
1617: E95D     C0         	RNZ		;yes, use it. 
1618: E95E     C309F6     	JMP	biosConsoleIn	;nope, go get a character responce.
1619: E961                ;                   
1620: E961                ;   Input and echo a character.
1621: E961                ;                   
1622: E961                GETECHO:            
1623: E961     CD56E9     	CALL	GETCHAR	;input a character.
1624: E964     CD6FE9     	CALL	CHKCHAR	;carriage control?
1625: E967     D8         	RC		;no, a regular control char so don't echo.
1626: E968     F5         	PUSH	PSW	;ok, save character now.
1627: E969     4F         	MOV	C,A            
1628: E96A     CDEBE9     	CALL	fcConsoleOut	;and echo it.
1629: E96D     F1         	POP	PSW	;get character and return.
1630: E96E     C9         	RET                
1631: E96F                ;                   
1632: E96F                ;   Check character in (A). Set the zero flag on a carriage
1633: E96F                ; control character and the carry flag on any other control
1634: E96F                ; character.        
1635: E96F                ;                   
1636: E96F                CHKCHAR:            
1637: E96F     FE0D       	CPI	CR	;check for carriage return, line feed, backspace,
1638: E971     C8         	RZ		;or a tab.     
1639: E972     FE0A       	CPI	LF             
1640: E974     C8         	RZ                 
1641: E975     FE09       	CPI	TAB            
1642: E977     C8         	RZ                 
1643: E978     FE08       	CPI	BS             
1644: E97A     C8         	RZ                 
1645: E97B     FE20       	CPI	BLANK	;other control char? Set carry flag.
1646: E97D     C9         	RET                
1647: E97E                ;                   
1648: E97E                ;   Check the console during output. Halt on a control-s, then
1649: E97E                ; reboot on a control-c. If anything else is ready, clear the
1650: E97E                ; zero flag and return (the calling routine may want to do
1651: E97E                ; something).       
1652: E97E                ;                   
1653: E97E                CKCONSOL:           
1654: E97E     3A69EB     	LDA	CHARBUF	;check buffer.
1655: E981     B7         	ORA	A	;if anything, just return without checking.
1656: E982     C2A0E9     	JNZ	CKCON2         
1657: E985     CD06F6     	CALL	biosConsoleStatus	;nothing in buffer. Check console.
1658: E988     E601       	ANI	01H	;look at bit 0.
1659: E98A     C8         	RZ		;return if nothing.
1660: E98B     CD09F6     	CALL	biosConsoleIn	;ok, get it.
1661: E98E     FE13       	CPI	CNTRLS	;if not control-s, return with zero cleared.
1662: E990     C29DE9     	JNZ	CKCON1         
1663: E993     CD09F6     	CALL	biosConsoleIn	;halt processing until another char
1664: E996     FE03       	CPI	CNTRLC	;is typed. Control-c?
1665: E998     CA0000     	JZ	0	;yes, reboot now.
1666: E99B     AF         	XRA	A	;no, just pretend nothing was ever ready.
1667: E99C     C9         	RET                
1668: E99D                CKCON1:             
1669: E99D     3269EB     	STA	CHARBUF	;save character in buffer for later processing.
1670: E9A0                CKCON2:             
1671: E9A0     3E01       	MVI	A,1	;set (A) to non zero to mean something is ready.
1672: E9A2     C9         	RET                
1673: E9A3                ;                   
1674: E9A3                ;   Output (C) to the screen. If the printer flip-flop flag
1675: E9A3                ; is set, we will send character to printer also. The console
1676: E9A3                ; will be checked in the process.
1677: E9A3                ;                   
1678: E9A3                OUTCHAR:            
1679: E9A3     3A65EB     	LDA	OutPutFlag	;check output flag.
1680: E9A6     B7         	ORA	A	;anything and we won't generate output.
1681: E9A7     C2BDE9     	JNZ	OUTCHR1        
1682: E9AA     C5         	PUSH	B             
1683: E9AB     CD7EE9     	CALL	CKCONSOL;check console (we don't care whats there).
1684: E9AE     C1         	POP	B              
1685: E9AF     C5         	PUSH	B             
1686: E9B0     CD0CF6     	CALL	biosConsoleOut	;output (C) to the screen.
1687: E9B3     C1         	POP	B              
1688: E9B4     C5         	PUSH	B             
1689: E9B5     3A68EB     	LDA	PrinterFlag	;check printer flip-flop flag.
1690: E9B8     B7         	ORA	A              
1691: E9B9     C40FF6     	CNZ	fcListOut	;print it also if non-zero.
1692: E9BC     C1         	POP	B              
1693: E9BD                OUTCHR1:            
1694: E9BD     79         	MOV	A,C	;update cursors position.
1695: E9BE     2167EB     	LXI	H,CursorPosition
1696: E9C1     FE7F       	CPI	DEL	;rubouts don't do anything here.
1697: E9C3     C8         	RZ                 
1698: E9C4     34         	INR	M	;bump line pointer.
1699: E9C5     FE20       	CPI	BLANK	;and return if a normal character.
1700: E9C7     D0         	RNC                
1701: E9C8     35         	DCR	M	;restore and check for the start of the line.
1702: E9C9     7E         	MOV	A,M            
1703: E9CA     B7         	ORA	A              
1704: E9CB     C8         	RZ		;ingnore control characters at the start of the line.
1705: E9CC     79         	MOV	A,C            
1706: E9CD     FE08       	CPI	BS	;is it a backspace?
1707: E9CF     C2D4E9     	JNZ	OUTCHR2        
1708: E9D2     35         	DCR	M	;yes, backup pointer.
1709: E9D3     C9         	RET                
1710: E9D4                OUTCHR2:            
1711: E9D4     FE0A       	CPI	LF	;is it a line feed?
1712: E9D6     C0         	RNZ		;ignore anything else.
1713: E9D7     3600       	MVI	M,0	;reset pointer to start of line.
1714: E9D9     C9         	RET                
1715: E9DA                ;                   
1716: E9DA                ;   Output (A) to the screen. If it is a control character
1717: E9DA                ; (other than carriage control), use ^x format.
1718: E9DA                ;                   
1719: E9DA                DisplayAcc:         
1720: E9DA     79         	MOV	A,C            
1721: E9DB     CD6FE9     	CALL	CHKCHAR	;check character.
1722: E9DE     D2EBE9     	JNC	fcConsoleOut	;not a control, use normal output.
1723: E9E1     F5         	PUSH	PSW           
1724: E9E2     0E5E       	MVI	C, CARET	; '^'	;for a control character, preceed it with '^'.
1725: E9E4     CDA3E9     	CALL	OUTCHAR       
1726: E9E7     F1         	POP	PSW            
1727: E9E8     F640       	ORI	ATSIGN		; '@'	;and then use the letter equivelant.
1728: E9EA     4F         	MOV	C,A            
1729: E9EB                ;                   
1730: E9EB                ;   Function to output (C) to the console device and expand tabs
1731: E9EB                ; if necessary.     
1732: E9EB                ;                   
1733: E9EB                fcConsoleOut:       
1734: E9EB     79         	MOV	A,C            
1735: E9EC     FE09       	CPI	TAB	;is it a tab?
1736: E9EE     C2A3E9     	JNZ	OUTCHAR	;use regular output.
1737: E9F1                fcConsoleOut1:      
1738: E9F1     0E20       	MVI	C,BLANK	;yes it is, use spaces instead.
1739: E9F3     CDA3E9     	CALL	OUTCHAR       
1740: E9F6     3A67EB     	LDA	CursorPosition	;go until the cursor is at a multiple of 8
1741: E9F9                                    
1742: E9F9     E607       	ANI	07H	;position. 
1743: E9FB     C2F1E9     	JNZ	fcConsoleOut1  
1744: E9FE     C9         	RET                
1745: E9FF                ;                   
1746: E9FF                ;   Echo a backspace character. Erase the prevoius character
1747: E9FF                ; on the screen.    
1748: E9FF                ;                   
1749: E9FF                BackUp:             
1750: E9FF     CD07EA     	CALL	BackUp1	;backup the screen 1 place.
1751: EA02     0E20       	MVI	C,BLANK	;then blank that character.
1752: EA04     CD0CF6     	CALL	biosConsoleOut
1753: EA07                BackUp1:            
1754: EA07     0E08       	MVI	C,BS	;then back space once more.
1755: EA09     C30CF6     	JMP	biosConsoleOut 
1756: EA0C                ;                   
1757: EA0C                ;   Signal a deleted line. Print a '#' at the end and start
1758: EA0C                ; over.             
1759: EA0C                ;                   
1760: EA0C                NEWLINE:            
1761: EA0C     0E23       	MVI	C, POUNDSN		; '#'
1762: EA0E     CDA3E9     	CALL	OUTCHAR	;print this.
1763: EA11     CD24EA     	CALL	OUTCRLF	;start new line.
1764: EA14                NEWLN1:             
1765: EA14     3A67EB     	LDA	CursorPosition	;move the cursor to the starting position.
1766: EA17     2166EB     	LXI	H,CursorPositionStart
1767: EA1A     BE         	CMP	M              
1768: EA1B     D0         	RNC		;there yet?   
1769: EA1C     0E20       	MVI	C,BLANK        
1770: EA1E     CDA3E9     	CALL	OUTCHAR	;nope, keep going.
1771: EA21     C314EA     	JMP	NEWLN1         
1772: EA24                ;                   
1773: EA24                ;   Output a (cr) (lf) to the console device (screen).
1774: EA24                ;                   
1775: EA24                OUTCRLF:            
1776: EA24     0E0D       	MVI	C,CR           
1777: EA26     CDA3E9     	CALL	OUTCHAR       
1778: EA29     0E0A       	MVI	C,LF           
1779: EA2B     C3A3E9     	JMP	OUTCHAR        
1780: EA2E                ;                   
1781: EA2E                ;   Print message pointed to by (BC). It will end with a '$'.
1782: EA2E                ;                   
1783: EA2E                PRTMESG:            
1784: EA2E     0A         	LDAX	B	;check for terminating character.
1785: EA2F     FE24       	CPI	DOLLAR		; '$'  
1786: EA31     C8         	RZ                 
1787: EA32     03         	INX	B              
1788: EA33     C5         	PUSH	B	;otherwise, bump pointer and print it.
1789: EA34     4F         	MOV	C,A            
1790: EA35     CDEBE9     	CALL	fcConsoleOut  
1791: EA38     C1         	POP	B              
1792: EA39     C32EEA     	JMP	PRTMESG        
1793: EA3C                ;                   
1794: EA3C                ;   Function to execute a buffered read.
1795: EA3C                ;                   
1796: EA3C                fcConsoleStringIn:  
1797: EA3C     3A67EB     	LDA		CursorPosition		;use present location as starting one.
1798: EA3F     3266EB     	STA		CursorPositionStart
1799: EA42     2A3CE8     	LHLD	ParamsDE			; get the pointer to maximum buffer space.
1800: EA45     4E         	MOV		C,M					; load size in C
1801: EA46     23         	INX		H					; point to first available space.
1802: EA47     E5         	PUSH	H					; and save.
1803: EA48     0600       	MVI		B,0					; keep a character count.
1804: EA4A                RDBUF1:             
1805: EA4A     C5         	PUSH	B					; save the buffer size (C) and character count (B)
1806: EA4B     E5         	PUSH	H					; save buffer position 
1807: EA4C                RDBUF2:             
1808: EA4C     CD56E9     	CALL	GETCHAR				; get the next input character.
1809: EA4F     E67F       	ANI		7FH					; strip bit 7. - only want 7-bit ascii
1810: EA51     E1         	POP		H					; get the buffer position
1811: EA52     C1         	POP		B					; save the buffer size (C) and character count (B)
1812: EA53     FE0D       	CPI		CR					; end of the line?
1813: EA55     CA1CEB     	JZ		RDBUF17				; Yes - then were are done
1814: EA58     FE0A       	CPI		LF            
1815: EA5A     CA1CEB     	JZ		RDBUF17				; same goes for Carriage Return
1816: EA5D                	                   
1817: EA5D     FE08       	CPI		BS					; how about a backspace?
1818: EA5F     C271EA     	JNZ		RDBUF3				; if not skip the following
1819: EA62                								; backSpace 
1820: EA62     78         	MOV		A,B					; ignore at the beginning of the line.
1821: EA63     B7         	ORA		A             
1822: EA64     CA4AEA     	JZ		RDBUF1				; go back if at start of the line
1823: EA67                	                   
1824: EA67     05         	DCR		B					; ok, update counter.
1825: EA68     3A67EB     	LDA		CursorPosition		; if we backspace to the start of the line,
1826: EA6B     3265EB     	STA		OutPutFlag			; treat as a cancel (control-x).
1827: EA6E     C3CBEA     	JMP		RDBUF10       
1828: EA71                	                   
1829: EA71                RDBUF3:             
1830: EA71     FE7F       	CPI		DEL					; user typed a rubout?
1831: EA73     C281EA     	JNZ		RDBUF4				; no? - skip the following
1832: EA76     78         	MOV		A,B					; at the start of the line?.
1833: EA77     B7         	ORA		A             
1834: EA78     CA4AEA     	JZ		RDBUF1				; ignore at the start of the line.
1835: EA7B                	                   
1836: EA7B     7E         	MOV		A,M					; ok, echo the prevoius character.
1837: EA7C     05         	DCR		B					; and reset pointers (counters).
1838: EA7D     2B         	DCX		H             
1839: EA7E     C304EB     	JMP		RDBUF15       
1840: EA81                	                   
1841: EA81                RDBUF4:             
1842: EA81     FE05       	CPI		CNTRLE				; physical end of line?
1843: EA83     C292EA     	JNZ		RDBUF5				; yes, skip the following
1844: EA86     C5         	PUSH	B					; save the buffer size (C) and character count (B)
1845: EA87     E5         	PUSH	H					; save buffer position 
1846: EA88     CD24EA     	CALL	OUTCRLF				; send a crlf to the console
1847: EA8B     AF         	XRA		A					; and update starting position.
1848: EA8C     3266EB     	STA		CursorPositionStart
1849: EA8F     C34CEA     	JMP		RDBUF2				; aqnd keep on trucking
1850: EA92                	                   
1851: EA92                RDBUF5:             
1852: EA92     FE10       	CPI		CNTRLP				; control-p? Print flag toggle
1853: EA94     C2A3EA     	JNZ		RDBUF6				; if not skip the following
1854: EA97     E5         	PUSH	H					; yes, flip the print flag filp-flop byte.
1855: EA98     2168EB     	LXI		H,PrinterFlag 
1856: EA9B     3E01       	MVI		A,1					; PrinterFlag=1-PrinterFlag
1857: EA9D     96         	SUB		M             
1858: EA9E     77         	MOV		M,A           
1859: EA9F     E1         	POP		H					; get the buffer position
1860: EAA0     C34AEA     	JMP		RDBUF1				; nothing to put into buffer go back for more
1861: EAA3                	                   
1862: EAA3                RDBUF6:             
1863: EAA3     FE18       	CPI		CNTRLX				; control-x (cancel)?
1864: EAA5     C2BAEA     	JNZ		RDBUF8				; no? skip the following
1865: EAA8     E1         	POP		H					; get the buffer position
1866: EAA9                RDBUF7:             
1867: EAA9     3A66EB     	LDA		CursorPositionStart ; yes, backup the cursor to here.
1868: EAAC     2167EB     	LXI		H,CursorPosition
1869: EAAF     BE         	CMP		M					; done yet?
1870: EAB0     D23CEA     	JNC		fcConsoleStringIn	; yes - go back to the start of reading a line of input
1871: EAB3     35         	DCR		M					; no, decrement pointer and output back up one space.
1872: EAB4     CDFFE9     	CALL	BackUp				; do the backup
1873: EAB7     C3A9EA     	JMP		RDBUF7				; keep doing until done
1874: EABA                	                   
1875: EABA                RDBUF8:             
1876: EABA     FE15       	CPI		CNTRLU				; cntrol-u (cancel line)?
1877: EABC     C2C6EA     	JNZ		RDBUF9        
1878: EABF     CD0CEA     	CALL	NEWLINE				; start a new line.
1879: EAC2     E1         	POP		H					; get the buffer position
1880: EAC3     C33CEA     	JMP		fcConsoleStringIn	; go back to the start of reading a line of input
1881: EAC6                	                   
1882: EAC6                RDBUF9:             
1883: EAC6     FE12       	CPI		CNTRLR				; control-r?
1884: EAC8     C201EB     	JNZ		RDBUF14       
1885: EACB                RDBUF10:;;;;;;;;;;;;;;;;;;;;;;;;;;;;;;;;
1886: EACB     C5         	PUSH	B					; save the buffer size (C) and character count (B)
1887: EACC     CD0CEA     	CALL	NEWLINE       
1888: EACF     E1         	POP		H					; get the buffer position
1889: EAD0     C1         	POP		B					; save the buffer size (C) and character count (B)
1890: EAD1     C5         	PUSH	B					; save the buffer size (C) and character count (B)
1891: EAD2     E5         	PUSH	H					; save buffer position 
1892: EAD3                RDBUF11:            
1893: EAD3     78         	MOV	A,B	;done whole line yet?
1894: EAD4     B7         	ORA	A              
1895: EAD5     CAE5EA     	JZ	RDBUF12         
1896: EAD8     23         	INX	H	;nope, get next character.
1897: EAD9     4E         	MOV	C,M            
1898: EADA     05         	DCR	B	;count it.   
1899: EADB     C5         	PUSH	B					; save the buffer size (C) and character count (B)
1900: EADC     E5         	PUSH	H					; save buffer position 
1901: EADD     CDDAE9     	CALL	DisplayAcc	;and display it.
1902: EAE0     E1         	POP		H					; get the buffer position
1903: EAE1     C1         	POP		B					; save the buffer size (C) and character count (B)
1904: EAE2     C3D3EA     	JMP	RDBUF11        
1905: EAE5                RDBUF12:            
1906: EAE5     E5         	PUSH	H					; save buffer position 
1907: EAE6     3A65EB     	LDA	OutPutFlag	;then update cursor position.
1908: EAE9     B7         	ORA	A              
1909: EAEA     CA4CEA     	JZ	RDBUF2          
1910: EAED     2167EB     	LXI	H,CursorPosition;because this line is shorter, we must
1911: EAF0     96         	SUB	M	;back up the cursor (not the screen however)
1912: EAF1     3265EB     	STA	OutPutFlag	;some number of positions.
1913: EAF4                RDBUF13:            
1914: EAF4     CDFFE9     	CALL	BackUp	;note that as long as (OutPutFlag) is non
1915: EAF7     2165EB     	LXI	H,OutPutFlag;zero, the screen will not be changed.
1916: EAFA     35         	DCR	M              
1917: EAFB     C2F4EA     	JNZ	RDBUF13        
1918: EAFE     C34CEA     	JMP	RDBUF2	;now just get the next character.
1919: EB01                ;                   
1920: EB01                ;   Just a normal character, put this in our buffer and echo.
1921: EB01                ;                   
1922: EB01                RDBUF14:            
1923: EB01     23         	INX		H             
1924: EB02     77         	MOV		M,A				; store character.
1925: EB03     04         	INR		B				; and count it.
1926: EB04                RDBUF15:            
1927: EB04     C5         	PUSH	B				; save the buffer size (C) and character count (B)
1928: EB05     E5         	PUSH	H				; save buffer position 
1929: EB06     4F         	MOV		C,A				;echo it now.
1930: EB07     CDDAE9     	CALL	DisplayAcc		; put it out to the console
1931: EB0A     E1         	POP		H				; get the buffer position
1932: EB0B     C1         	POP		B				; save the buffer size (C) and character count (B)
1933: EB0C     7E         	MOV		A,M				; was it an abort request?
1934: EB0D     FE03       	CPI		CNTRLC			; control-c abort?
1935: EB0F     78         	MOV		A,B				; get character count to Acc
1936: EB10     C218EB     	JNZ		RDBUF16       
1937: EB13     FE01       	CPI		1				; only if at start of line.
1938: EB15     CA0000     	JZ		0				; do we do a reboot
1939: EB18                RDBUF16:            
1940: EB18     B9         	CMP		C				; have we filled the buffer?
1941: EB19     DA4AEA     	JC		RDBUF1			; no- go back for more		
1942: EB1C                RDBUF17:            
1943: EB1C     E1         	POP		H				; yes end the line and return.
1944: EB1D     70         	MOV		M,B           
1945: EB1E     0E0D       	MVI		C,CR          
1946: EB20     C3A3E9     	JMP		OUTCHAR	;output (cr) and return.
1947: EB23                ;                   
1948: EB23                ;   Function to get a character from the console device.
1949: EB23                ;                   
1950: EB23                fcConsoleIn:        
1951: EB23     CD61E9     	CALL	GETECHO	;get and echo.
1952: EB26     C35CEB     	JMP	SetStatusBDOS	;save status and return.
1953: EB29                ;                   
1954: EB29                ;   Function to get a character from the tape reader device.
1955: EB29                ;                   
1956: EB29                fcReaderIn:         
1957: EB29     CD15F6     	CALL	biosReaderIn	;get a character from reader, set status and return.
1958: EB2C     C35CEB     	JMP	SetStatusBDOS  
1959: EB2F                ;                   
1960: EB2F                ;  Function to perform direct console i/o. If (C) contains (FF)
1961: EB2F                ; then this is an input request. If (C) contains (FE) then
1962: EB2F                ; this is a status request. Otherwise we are to output (C).
1963: EB2F                ;                   
1964: EB2F                fcDirectConsoleOut: 
1965: EB2F     79         	MOV	A,C	;test for (FF).
1966: EB30     3C         	INR	A              
1967: EB31     CA3BEB     	JZ	DIRC1           
1968: EB34     3C         	INR	A	;test for (FE).
1969: EB35     CA06F6     	JZ	biosConsoleStatus
1970: EB38     C30CF6     	JMP	biosConsoleOut	;just output (C).
1971: EB3B                DIRC1:              
1972: EB3B     CD06F6     	CALL	biosConsoleStatus	;this is an input request.
1973: EB3E     B7         	ORA	A              
1974: EB3F     CA90E8     	JZ	BDOSExit1	;not ready? Just return (directly).
1975: EB42     CD09F6     	CALL	biosConsoleIn	;yes, get character.
1976: EB45     C35CEB     	JMP	SetStatusBDOS	;set status and return.
1977: EB48                ;                   
1978: EB48                ;   Function to return the i/o byte.
1979: EB48                ;                   
1980: EB48                fcGetIOByte:        
1981: EB48     3A0300     	LDA	IOBYTE         
1982: EB4B     C35CEB     	JMP	SetStatusBDOS  
1983: EB4E                ;                   
1984: EB4E                ;   Function to set the i/o byte.
1985: EB4E                ;                   
1986: EB4E                fcSetIOByte:        
1987: EB4E     210300     	LXI	H,IOBYTE       
1988: EB51     71         	MOV	M,C            
1989: EB52     C9         	RET                
1990: EB53                ;                   
1991: EB53                ;   Function to print the character string pointed to by (DE)
1992: EB53                ; on the console device. The string ends with a '$'.
1993: EB53                ;                   
1994: EB53                fcConsoleStringOut: 
1995: EB53     EB         	XCHG               
1996: EB54     4D         	MOV	C,L            
1997: EB55     44         	MOV	B,H	;now (BC) points to it.
1998: EB56     C32EEA     	JMP	PRTMESG        
1999: EB59                ;                   
2000: EB59                ;   Function to interigate the console device.
2001: EB59                ;                   
2002: EB59                fcConsoleStatusIn:  
2003: EB59     CD7EE9     	CALL	CKCONSOL      
2004: EB5C                ;                   
2005: EB5C                ;   Get here to set the status and return to the cleanup
2006: EB5C                ; section. Then back to the user.
2007: EB5C                ;                   
2008: EB5C                SetStatusBDOS:      
2009: EB5C     323FE8     	STA		StatusBDOSReturn
2010: EB5F                fcReturn:           
2011: EB5F     C9         	RET                
2012: EB60                ;                   
2013: EB60                ;   Set the status to 1 (read or write error code).
2014: EB60                ;                   
2015: EB60                IOERR1:             
2016: EB60     3E01       	MVI	A,1            
2017: EB62     C35CEB     	JMP	SetStatusBDOS  
2018: EB65                ;                   
2019: EB65     00         OutPutFlag:	DB	0	;output flag (non zero means no output).
2020: EB66     02         CursorPositionStart:	DB	2	;starting position for cursor.
2021: EB67     00         CursorPosition:		DB	0	;cursor position (0=start of line).
2022: EB68     00         PrinterFlag:	DB	0	;printer flag (control-p toggle). List if non zero.
2023: EB69     00         CHARBUF:	DB	0	;single input character buffer.
2024: EB6A                ;                   
2025: EB6A                ;   Stack area for BDOS calls.
2026: EB6A                ;                   
2027: EB6A                                    
2028: EB6A                ;                   
2029: EB6A                ;	DB	0,0,0,0,0,0,0,0,0,0,0,0,0,0,0,0,0,0,0,0,0,0,0,0
2030: EB6A                ;	DB	0,0,0,0,0,0,0,0,0,0,0,0,0,0,0,0,0,0,0,0,0,0,0,0
2031: EB6A                ;BDOSstack	EQU	$	;end of stack area.
2032: EB6A                ;                   
2033: EB6A                ;                   
2034: EB6A                ;   Select error occured, jump to error routine.
2035: EB6A                ;                   
2036: EB6A                SLCTERR:            
2037: EB6A     21EEE8     	LXI		H,BADSLCT     
2038: EB6D                ;                   
2039: EB6D                ;   Jump to (HL) indirectly.
2040: EB6D                ;                   
2041: EB6D                JumpToHL:           
2042: EB6D     5E         	MOV		E,M           
2043: EB6E     23         	INX		H             
2044: EB6F     56         	MOV		D,M			;now (DE) contain the desired address.
2045: EB70     EB         	XCHG               
2046: EB71     E9         	PCHL               
2047: EB72                ;                   
2048: EB72                ;   Block move. (DE) to (HL), (C) bytes total.
2049: EB72                ;                   
2050: EB72                DEtoHL:             
2051: EB72     0C         	INR		C			; manage counter
2052: EB73                DEtoHL1:            
2053: EB73     0D         	DCR		C			; decrement counter
2054: EB74     C8         	RZ					; Return if done
2055: EB75                	                   
2056: EB75     1A         	LDAX	D			; move a byte.
2057: EB76     77         	MOV		M,A           
2058: EB77     13         	INX		D             
2059: EB78     23         	INX		H             
2060: EB79     C373EB     	JMP		DEtoHL1		;	and repeat.
2061: EB7C                ;                   
2062: EB7C                ;   Select the desired drive.
2063: EB7C                ; it will set up all the disk parameters blocks 
2064: EB7C                ;                   
2065: EB7C                SelectDisk:         
2066: EB7C     3AA2F5     	LDA		CurrentDrive		; get active disk.
2067: EB7F     4F         	MOV		C,A					; set up for Bios call, put disk in (C)
2068: EB80     CD1BF6     	CALL	biosSelectDisk		; call into BIOS to select it.
2069: EB83     7C         	MOV		A,H					; HL = 0000 if invalid
2070: EB84     B5         	ORA		L					; otherwise it points to the correct Disk Parameter Block
2071: EB85     C8         	RZ							; so, return if HL = 0000
2072: EB86                ;                   
2073: EB86                ;   Here, the BIOS returned the address of the parameter block
2074: EB86                ; in (HL). We will extract the necessary pointers and save them.
2075: EB86                ;                   
2076: EB86     5E         	MOV		E,M					; first word of DPB points to the drive's skew table
2077: EB87     23         	INX		H             
2078: EB88     56         	MOV		D,M					; Get it and put it into (DE)
2079: EB89     23         	INX		H             
2080: EB8A                						;save pointers to BDOS scratch areas
2081: EB8A     22ABF5     	SHLD	FilePosInDirSegment		; save Relative position for file		.
2082: EB8D     23         	INX		H             
2083: EB8E     23         	INX		H             
2084: EB8F     22ADF5     	SHLD	LastTrackNumber		; save last track referenced			
2085: EB92     23         	INX		H             
2086: EB93     23         	INX		H             
2087: EB94     22AFF5     	SHLD	LastSectorNumber	; save last sector referenced	
2088: EB97     23         	INX		H             
2089: EB98     23         	INX		H					; get directory buffer
2090: EB99     EB         	XCHG						; been holding the translation table address in DE, now in HL
2091: EB9A                								; Moved Directory buffer pointer into DE (from HL
2092: EB9A     22C8F5     	SHLD	XLATE				; save skew table address				
2093: EB9D     21B1F5     	LXI		H,DirBuffAddr			; get address of the directory buffer vector
2094: EBA0     0E08       	MVI		C,8					; they consist of the directory buffer
2095: EBA2     CD72EB     	CALL	DEtoHL				; pointer, parameter block pointer,check and allocation vectors.
2096: EBA5     2AB3F5     	LHLD	DiskParamBlock				;  * DISK PARAMTER BLOCK POINTER
2097: EBA8     EB         	XCHG						; put into DE
2098: EBA9     21B9F5     	LXI		H,SECTORS			; point at  Sectors per Block
2099: EBAC     0E0F       	MVI		C,15				; it is 15 bytes long. 
2100: EBAE     CD72EB     	CALL	DEtoHL				; move disk parameter block from BIOS to BDOS for current disk
2101: EBB1     2ABEF5     	LHLD	DiskSize			; check disk size.
2102: EBB4     7C         	MOV		A,H					; more than 256 blocks on this?
2103: EBB5     21D4F5     	LXI		H,SmallDisk			; should be called SmallDisk [ if SmallDisk =0 then > 256 block long])
2104: EBB8     36FF       	MVI		M,0FFH				; set to small.
2105: EBBA     B7         	ORA		A             
2106: EBBB     CAC0EB     	JZ		SelectDisk1    
2107: EBBE     3600       	MVI		M,0					; wrong, set to large.
2108: EBC0                SelectDisk1:        
2109: EBC0     3EFF       	MVI		A,0FFH				; clear the zero flag.
2110: EBC2     B7         	ORA		A             
2111: EBC3     C9         	RET                
2112: EBC4                ;                   
2113: EBC4                ;   Routine to home the disk track head and clear pointers.
2114: EBC4                ;                   
2115: EBC4                HomeDrive:          
2116: EBC4     CD18F6     	CALL	biosHomeDisk			; home the head.
2117: EBC7     AF         	XRA		A				; set accumulator to 00	
2118: EBC8     2AADF5     	LHLD	LastTrackNumber	; set track pointer to 00.
2119: EBCB     77         	MOV		M,A           
2120: EBCC     23         	INX		H             
2121: EBCD     77         	MOV		M,A           
2122: EBCE     2AAFF5     	LHLD	LastSectorNumber; set sector pointer to 00.
2123: EBD1     77         	MOV		M,A           
2124: EBD2     23         	INX		H             
2125: EBD3     77         	MOV		M,A           
2126: EBD4     C9         	RET                
2127: EBD5                ;                   
2128: EBD5                ;   Do the actual disk read and check the error return status.
2129: EBD5                ;                   
2130: EBD5                DOREAD:             
2131: EBD5     CD27F6     	CALL	biosReadDisk  
2132: EBD8     C3DEEB     	JMP	IORET          
2133: EBDB                ;                   
2134: EBDB                ;   Do the actual disk write and handle any bios error.
2135: EBDB                ;                   
2136: EBDB                DOWRITE:            
2137: EBDB     CD2AF6     	CALL	biosWriteDisk 
2138: EBDE                IORET:              
2139: EBDE     B7         	ORA	A              
2140: EBDF     C8         	RZ		;return unless an error occured.
2141: EBE0     21ECE8     	LXI	H,BADSCTR;bad read/write on this sector.
2142: EBE3     C36DEB     	JMP	JumpToHL       
2143: EBE6                ;                   
2144: EBE6                ;   Routine to select the track and sector that the desired
2145: EBE6                ; block number falls in.
2146: EBE6                ;                   
2147: EBE6                TrackSectorForDir:  
2148: EBE6     2AE1F5     	LHLD	FilePosInDirectory		; get position of last accessed file
2149: EBE9     0E02       	MVI		C,2						; there are 4 directory entries/Sector.
2150: EBEB     CD0DED     	CALL	HLrightC				; file-position/4 = sector #
2151: EBEE     22DCF5     	SHLD	BlockNumber				; save this as the block number of interest.
2152: EBF1     22E3F5     	SHLD	CheckSumTable			; what's it doing here too?
2153: EBF4                ;                   
2154: EBF4                ;   if the sector number has already been set (BlockNumber), enter
2155: EBF4                ; at this point.    
2156: EBF4                ;Save               
2157: EBF4                TrackSectorForBlock:
2158: EBF4                		;move Desired Block number into (BC).
2159: EBF4     21DCF5     	LXI		H,BlockNumber 
2160: EBF7     4E         	MOV		C,M				       
2161: EBF8     23         	INX		H             
2162: EBF9     46         	MOV		B,M           
2163: EBFA                		;move Last sector number into (DE).
2164: EBFA     2AAFF5     	LHLD	LastSectorNumber
2165: EBFD     5E         	MOV		E,M	          
2166: EBFE     23         	INX		H             
2167: EBFF     56         	MOV		D,M           
2168: EC00                		;move current track number into (HL).
2169: EC00     2AADF5     	LHLD	LastTrackNumber
2170: EC03     7E         	MOV		A,M           
2171: EC04     23         	INX		H             
2172: EC05     66         	MOV		H,M           
2173: EC06     6F         	MOV		L,A           
2174: EC07                	                   
2175: EC07                TrackSectorForBlock1:
2176: EC07     79         	MOV		A,C			;is desired sector before current one?
2177: EC08     93         	SUB		E             
2178: EC09     78         	MOV		A,B           
2179: EC0A     9A         	SBB		D             
2180: EC0B     D21DEC     	JNC		TrackSectorForBlock2
2181: EC0E     E5         	PUSH	H			;yes, decrement sectors by one track.
2182: EC0F     2AB9F5     	LHLD	SECTORS		;get sectors per track.
2183: EC12     7B         	MOV		A,E           
2184: EC13     95         	SUB		L             
2185: EC14     5F         	MOV		E,A           
2186: EC15     7A         	MOV		A,D           
2187: EC16     9C         	SBB		H             
2188: EC17     57         	MOV		D,A			;now we have backed up one full track.
2189: EC18     E1         	POP		H             
2190: EC19     2B         	DCX		H			;adjust track counter.
2191: EC1A     C307EC     	JMP		TrackSectorForBlock1
2192: EC1D                TrackSectorForBlock2:
2193: EC1D     E5         	PUSH	H			;desired sector is after current one.
2194: EC1E     2AB9F5     	LHLD	SECTORS		;get sectors per track.
2195: EC21     19         	DAD	D				;bump sector pointer to next track.
2196: EC22     DA32EC     	JC		TrackSectorForBlock3
2197: EC25     79         	MOV		A,C			;is desired sector now before current one?
2198: EC26     95         	SUB		L             
2199: EC27     78         	MOV		A,B           
2200: EC28     9C         	SBB		H             
2201: EC29     DA32EC     	JC		TrackSectorForBlock3
2202: EC2C     EB         	XCHG				;not yes, increment track counter
2203: EC2D     E1         	POP		H			;and continue until it is.
2204: EC2E     23         	INX		H             
2205: EC2F     C31DEC     	JMP		TrackSectorForBlock2
2206: EC32                ;                   
2207: EC32                ;   here we have determined the track number that contains the
2208: EC32                ; desired sector.   
2209: EC32                ;                   
2210: EC32                TrackSectorForBlock3:
2211: EC32     E1         	POP		H			;get track number (HL).
2212: EC33     C5         	PUSH	B             
2213: EC34     D5         	PUSH	D             
2214: EC35     E5         	PUSH	H             
2215: EC36     EB         	XCHG               
2216: EC37     2AC6F5     	LHLD	OFFSET		;adjust for first track offset.
2217: EC3A     19         	DAD		D             
2218: EC3B     44         	MOV		B,H           
2219: EC3C     4D         	MOV		C,L           
2220: EC3D     CD1EF6     	CALL	biosSetTrack		;select this track.
2221: EC40     D1         	POP		D			;reset current track pointer.
2222: EC41     2AADF5     	LHLD	LastTrackNumber
2223: EC44     73         	MOV		M,E           
2224: EC45     23         	INX		H             
2225: EC46     72         	MOV		M,D           
2226: EC47     D1         	POP		D             
2227: EC48     2AAFF5     	LHLD	LastSectorNumber	;reset the first sector on this track.
2228: EC4B     73         	MOV		M,E           
2229: EC4C     23         	INX		H             
2230: EC4D     72         	MOV		M,D           
2231: EC4E     C1         	POP		B             
2232: EC4F     79         	MOV		A,C			;now subtract the desired one.
2233: EC50     93         	SUB		E			;to make it relative (1-# sectors/track).
2234: EC51     4F         	MOV		C,A           
2235: EC52     78         	MOV		A,B           
2236: EC53     9A         	SBB		D             
2237: EC54     47         	MOV		B,A           
2238: EC55     2AC8F5     	LHLD	XLATE		;translate this sector according to this table.
2239: EC58     EB         	XCHG               
2240: EC59     CD30F6     	CALL	biosSectorTranslate		;let the bios translate it.
2241: EC5C     4D         	MOV		C,L           
2242: EC5D     44         	MOV		B,H           
2243: EC5E     C321F6     	JMP		biosSetSector		;and select it.
2244: EC61                ;                   
2245: EC61                ;   Compute block number from record number (SAVNREC) and
2246: EC61                ; extent number (SAVEXT).
2247: EC61                ;                   
2248: EC61                GETBLOCK:           
2249: EC61     21BBF5     	LXI	H,BLKSHFT;get logical to physical conversion.
2250: EC64     4E         	MOV	C,M	;note that this is base 2 log of ratio.
2251: EC65     3ADAF5     	LDA	SAVNREC	;get record number.
2252: EC68                GETBLK1:            
2253: EC68     B7         	ORA	A	;compute (A)=(A)/2^BLKSHFT.
2254: EC69     1F         	RAR                
2255: EC6A     0D         	DCR	C              
2256: EC6B     C268EC     	JNZ	GETBLK1        
2257: EC6E     47         	MOV	B,A	;save result in (B).
2258: EC6F     3E08       	MVI	A,8            
2259: EC71     96         	SUB	M              
2260: EC72     4F         	MOV	C,A	;compute (C)=8-BLKSHFT.
2261: EC73     3AD9F5     	LDA	SAVEXT         
2262: EC76                GETBLK2:            
2263: EC76     0D         	DCR	C	;compute (A)=SAVEXT*2^(8-BLKSHFT).
2264: EC77     CA7FEC     	JZ	GETBLK3         
2265: EC7A     B7         	ORA	A              
2266: EC7B     17         	RAL                
2267: EC7C     C376EC     	JMP	GETBLK2        
2268: EC7F                GETBLK3:            
2269: EC7F     80         	ADD	B              
2270: EC80     C9         	RET                
2271: EC81                ;                   
2272: EC81                ;   Routine to extract the (BC) block byte from the fcb pointed
2273: EC81                ; to by (ParamsDE). If this is a big-disk, then these are 16 bit
2274: EC81                ; block numbers, else they are 8 bit numbers.
2275: EC81                ; Number is returned in (HL).
2276: EC81                ;                   
2277: EC81                EXTBLK:             
2278: EC81     2A3CE8     	LHLD	ParamsDE	;get fcb address.
2279: EC84     111000     	LXI	D,16	;block numbers start 16 bytes into fcb.
2280: EC87     19         	DAD	D              
2281: EC88     09         	DAD	B              
2282: EC89     3AD4F5     	LDA	SmallDisk	;are we using a big-disk?
2283: EC8C     B7         	ORA	A              
2284: EC8D     CA94EC     	JZ	EXTBLK1         
2285: EC90     6E         	MOV	L,M	;no, extract an 8 bit number from the fcb.
2286: EC91     2600       	MVI	H,0            
2287: EC93     C9         	RET                
2288: EC94                EXTBLK1:            
2289: EC94     09         	DAD	B	;yes, extract a 16 bit number.
2290: EC95     5E         	MOV	E,M            
2291: EC96     23         	INX	H              
2292: EC97     56         	MOV	D,M            
2293: EC98     EB         	XCHG		;return in (HL).
2294: EC99     C9         	RET                
2295: EC9A                ;                   
2296: EC9A                ;   Compute block number.
2297: EC9A                ;                   
2298: EC9A                COMBLK:             
2299: EC9A     CD61EC     	CALL	GETBLOCK      
2300: EC9D     4F         	MOV	C,A            
2301: EC9E     0600       	MVI	B,0            
2302: ECA0     CD81EC     	CALL	EXTBLK        
2303: ECA3     22DCF5     	SHLD	BlockNumber   
2304: ECA6     C9         	RET                
2305: ECA7                ;                   
2306: ECA7                ;   Check for a zero block number (unused).
2307: ECA7                ;                   
2308: ECA7                CHKBLK:             
2309: ECA7     2ADCF5     	LHLD	BlockNumber   
2310: ECAA     7D         	MOV	A,L	;is it zero?
2311: ECAB     B4         	ORA	H              
2312: ECAC     C9         	RET                
2313: ECAD                ;                   
2314: ECAD                ;   Adjust physical block (BlockNumber) and convert to logical
2315: ECAD                ; sector (LOGSECT). This is the starting sector of this block.
2316: ECAD                ; The actual sector of interest is then added to this and the
2317: ECAD                ; resulting sector number is stored back in (BlockNumber). This
2318: ECAD                ; will still have to be adjusted for the track number.
2319: ECAD                ;                   
2320: ECAD                LOGICAL:            
2321: ECAD     3ABBF5     	LDA	BLKSHFT	;get log2(physical/logical sectors).
2322: ECB0     2ADCF5     	LHLD	BlockNumber	;get physical sector desired.
2323: ECB3                LOGICL1:            
2324: ECB3     29         	DAD	H	;compute logical sector number.
2325: ECB4     3D         	DCR	A	;note logical sectors are 128 bytes long.
2326: ECB5     C2B3EC     	JNZ	LOGICL1        
2327: ECB8     22DEF5     	SHLD	LOGSECT	;save logical sector.
2328: ECBB     3ABCF5     	LDA	BLKMASK	;get block mask.
2329: ECBE     4F         	MOV	C,A            
2330: ECBF     3ADAF5     	LDA	SAVNREC	;get next sector to access.
2331: ECC2     A1         	ANA	C	;extract the relative position within physical block.
2332: ECC3     B5         	ORA	L	;and add it too logical sector.
2333: ECC4     6F         	MOV	L,A            
2334: ECC5     22DCF5     	SHLD	BlockNumber	;and store.
2335: ECC8     C9         	RET                
2336: ECC9                ;                   
2337: ECC9                ;   Set (HL) to point to extent byte in fcb.
2338: ECC9                ;                   
2339: ECC9                SETEXT:             
2340: ECC9     2A3CE8     	LHLD	ParamsDE      
2341: ECCC     110C00     	LXI	D,12	;it is the twelth byte.
2342: ECCF     19         	DAD	D              
2343: ECD0     C9         	RET                
2344: ECD1                ;                   
2345: ECD1                ;   Set (HL) to point to record count byte in fcb and (DE) to
2346: ECD1                ; next record number byte.
2347: ECD1                ;                   
2348: ECD1                SETHLDE:            
2349: ECD1     2A3CE8     	LHLD	ParamsDE      
2350: ECD4     110F00     	LXI	D,15	;record count byte (#15).
2351: ECD7     19         	DAD	D              
2352: ECD8     EB         	XCHG               
2353: ECD9     211100     	LXI	H,17	;next record number (#32).
2354: ECDC     19         	DAD	D              
2355: ECDD     C9         	RET                
2356: ECDE                ;                   
2357: ECDE                ;   Save current file data from fcb.
2358: ECDE                ;                   
2359: ECDE                STRDATA:            
2360: ECDE     CDD1EC     	CALL	SETHLDE       
2361: ECE1     7E         	MOV	A,M	;get and store record count byte.
2362: ECE2     32DAF5     	STA	SAVNREC        
2363: ECE5     EB         	XCHG               
2364: ECE6     7E         	MOV	A,M	;get and store next record number byte.
2365: ECE7     32D8F5     	STA	SAVNXT         
2366: ECEA     CDC9EC     	CALL	SETEXT	;point to extent byte.
2367: ECED     3ABDF5     	LDA	EXTMASK	;get extent mask.
2368: ECF0     A6         	ANA	M              
2369: ECF1     32D9F5     	STA	SAVEXT	;and save extent here.
2370: ECF4     C9         	RET                
2371: ECF5                ;                   
2372: ECF5                ;   Set the next record to access. If (MODE) is set to 2, then
2373: ECF5                ; the last record byte (SAVNREC) has the correct number to access.
2374: ECF5                ; For sequential access, (MODE) will be equal to 1.
2375: ECF5                ;                   
2376: ECF5                SETNREC:            
2377: ECF5     CDD1EC     	CALL	SETHLDE       
2378: ECF8     3ACDF5     	LDA	MODE	;get sequential flag (=1).
2379: ECFB     FE02       	CPI	2	;a 2 indicates that no adder is needed.
2380: ECFD     C201ED     	JNZ	STNREC1        
2381: ED00     AF         	XRA	A	;clear adder (random access?).
2382: ED01                STNREC1:            
2383: ED01     4F         	MOV	C,A            
2384: ED02     3ADAF5     	LDA	SAVNREC	;get last record number.
2385: ED05     81         	ADD	C	;increment record count.
2386: ED06     77         	MOV	M,A	;and set fcb's next record byte.
2387: ED07     EB         	XCHG               
2388: ED08     3AD8F5     	LDA	SAVNXT	;get next record byte from storage.
2389: ED0B     77         	MOV	M,A	;and put this into fcb as number of records used.
2390: ED0C     C9         	RET                
2391: ED0D                ;                   
2392: ED0D                ;   Shift HL right (C) bits.
2393: ED0D                ;                   
2394: ED0D                HLrightC:           
2395: ED0D     0C         	INR		C			; minor adjustment
2396: ED0E                HLrightC1:          
2397: ED0E     0D         	DCR		C			; count down
2398: ED0F     C8         	RZ					; exit if done
2399: ED10     7C         	MOV		A,H			; get the hi byte
2400: ED11     B7         	ORA		A			; reset carry bit
2401: ED12     1F         	RAR					; rotate right thru carry
2402: ED13     67         	MOV		H,A			; return new hi byte
2403: ED14     7D         	MOV		A,L			; get lo byte
2404: ED15     1F         	RAR					; rotate right thru carry
2405: ED16     6F         	MOV		L,A			; return new lo byte
2406: ED17     C30EED     	JMP		HLrightC1		; keep doing it
2407: ED1A                ;                   
2408: ED1A                ;	Compute the check-sum for the directory buffer.
2409: ED1A                ;	Return integer sum in (A).
2410: ED1A                ;   add all values in the buffer ignoring carrys
2411: ED1A                ;                   
2412: ED1A                CheckSum:           
2413: ED1A     0E80       	MVI		C,DirBuffSize		; length of buffer.
2414: ED1C     2AB1F5     	LHLD	DirBuffAddr			; get its address.
2415: ED1F     AF         	XRA		A					; clear summation byte.
2416: ED20                CheckSum1:          
2417: ED20     86         	ADD	M						; compute running sum ignoring carries.
2418: ED21     23         	INX	H              
2419: ED22     0D         	DCR	C              
2420: ED23     C220ED     	JNZ	CheckSum1      
2421: ED26     C9         	RET                
2422: ED27                                    
2423: ED27                ;                   
2424: ED27                ;   Extract the write protect status bit for the current drive.
2425: ED27                ; The result is returned in (A), bit 0.
2426: ED27                ;                   
2427: ED27                GETWPRT:            
2428: ED27     2AA5F5     	LHLD	ROBitMap		;get Read Only Bit Map
2429: ED2A     3AA2F5     	LDA		CurrentDrive	;which drive is current?
2430: ED2D     4F         	MOV		C,A           
2431: ED2E     CD0DED     	CALL	HLrightC			;shift status such that bit 0 is the
2432: ED31     7D         	MOV		A,L				;one of interest for this drive.
2433: ED32     E601       	ANI		01H				;and isolate it.
2434: ED34     C9         	RET						; Zero if not write protected
2435: ED35                ;                   
2436: ED35                ;   Function to write protect the current disk.
2437: ED35                ;                   
2438: ED35                fcSetDiskRO:        
2439: ED35     21A5F5     	LXI	H,ROBitMap	;point to Read Only Bit Map
2440: ED38     4E         	MOV	C,M	;set (BC) equal to the status.
2441: ED39     23         	INX	H              
2442: ED3A     46         	MOV	B,M            
2443: ED3B     CD4BF4     	CALL	SetBit	;and set this bit according to current drive.
2444: ED3E     22A5F5     	SHLD	ROBitMap	;then save.
2445: ED41     2AC0F5     	LHLD	DrectorySize	;now save directory size limit.
2446: ED44     23         	INX	H	;remember the last one.
2447: ED45     EB         	XCHG               
2448: ED46     2AABF5     	LHLD	FilePosInDirSegment;and store it here.
2449: ED49     73         	MOV	M,E	;put low byte.
2450: ED4A     23         	INX	H              
2451: ED4B     72         	MOV	M,D	;then high byte.
2452: ED4C     C9         	RET                
2453: ED4D                ;                   
2454: ED4D                ;   Check for a read only file.
2455: ED4D                ;                   
2456: ED4D                CHKROFL:            
2457: ED4D     CD67ED     	CALL	FCB2HL	;set (HL) to file entry in directory buffer.
2458: ED50                CKROF1:             
2459: ED50     110900     	LXI	D,9	;look at bit 7 of the ninth byte.
2460: ED53     19         	DAD	D              
2461: ED54     7E         	MOV	A,M            
2462: ED55     17         	RAL                
2463: ED56     D0         	RNC		;return if ok.
2464: ED57     21F2E8     	LXI	H,ROFILE;else, print error message and terminate.
2465: ED5A     C36DEB     	JMP	JumpToHL       
2466: ED5D                ;                   
2467: ED5D                ;   Check the write protect status of the active disk.
2468: ED5D                ;                   
2469: ED5D                CHKWPRT:            
2470: ED5D     CD27ED     	CALL	GETWPRT			; is it write protected ?
2471: ED60     C8         	RZ						; NO, return.
2472: ED61     21F0E8     	LXI		H,RODISK      
2473: ED64     C36DEB     	JMP	JumpToHL		; else print message and terminate.
2474: ED67                ;                   
2475: ED67                ;   Routine to set (HL) pointing to the proper entry in the
2476: ED67                ; directory buffer. 
2477: ED67                ;                   
2478: ED67                FCB2HL:             
2479: ED67     2AB1F5     	LHLD	DirBuffAddr		;get address of buffer.
2480: ED6A     3AE0F5     	LDA		FCBPosition		;relative position of file.
2481: ED6D                ;                   
2482: ED6D                ;   Routine to add (A) to (HL).
2483: ED6D                ;                   
2484: ED6D                ADDA2HL:            
2485: ED6D     85         	ADD		L             
2486: ED6E     6F         	MOV		L,A           
2487: ED6F     D0         	RNC	               
2488: ED70     24         	INR		H			;take care of any carry.
2489: ED71     C9         	RET                
2490: ED72                ;                   
2491: ED72                ;   Routine to get the 's2' byte(Extent Count) from the fcb supplied in
2492: ED72                ; the initial parameter specification.
2493: ED72                ;                   
2494: ED72                GETS2:              
2495: ED72     2A3CE8     	LHLD	ParamsDE	;get address of fcb.
2496: ED75     110E00     	LXI		D,14		;relative position of 's2'.
2497: ED78     19         	DAD		D             
2498: ED79     7E         	MOV		A,M			;extract this byte.
2499: ED7A     C9         	RET                
2500: ED7B                ;                   
2501: ED7B                ;   Clear the 's2' byte in the fcb.
2502: ED7B                ;                   
2503: ED7B                CLEARS2:            
2504: ED7B     CD72ED     	CALL	GETS2		;this sets (HL) pointing to it.
2505: ED7E     3600       	MVI		M,0			;now clear it.
2506: ED80     C9         	RET                
2507: ED81                ;                   
2508: ED81                ;   Set bit 7 in the 's2' byte of the fcb.
2509: ED81                ;                   
2510: ED81                SETS2B7:            
2511: ED81     CD72ED     	CALL	GETS2		;get the byte.
2512: ED84     F680       	ORI		80H			;and set bit 7.
2513: ED86     77         	MOV		M,A			;then store.
2514: ED87     C9         	RET                
2515: ED88                ;                   
2516: ED88                ;   Compare (FilePosInDirectory) with (FilePosInDirSegment) and set flags based on
2517: ED88                ; the difference. This checks to see if there are more file
2518: ED88                ; names in the directory. We are at (FilePosInDirectory) and there are
2519: ED88                ; (FilePosInDirSegment) of them to check.
2520: ED88                ;                   
2521: ED88                MOREFLS:            
2522: ED88     2AE1F5     	LHLD	FilePosInDirectory			;we are here.
2523: ED8B     EB         	XCHG               
2524: ED8C     2AABF5     	LHLD	FilePosInDirSegment	;and don't go past here.
2525: ED8F     7B         	MOV		A,E				;compute difference but don't keep.
2526: ED90     96         	SUB		M             
2527: ED91     23         	INX		H             
2528: ED92     7A         	MOV		A,D           
2529: ED93     9E         	SBB		M				;set carry if no more names.
2530: ED94     C9         	RET                
2531: ED95                ;                   
2532: ED95                ;   Call this routine to prevent (FilePosInDirSegment) from being greater
2533: ED95                ; than (FilePosInDirectory).
2534: ED95                ;                   
2535: ED95                CHKNMBR:            
2536: ED95     CD88ED     	CALL	MOREFLS		;FilePosInDirSegment too big?
2537: ED98     D8         	RC                 
2538: ED99     13         	INX		D		;yes, reset it to (FilePosInDirectory).
2539: ED9A     72         	MOV		M,D           
2540: ED9B     2B         	DCX		H             
2541: ED9C     73         	MOV		M,E           
2542: ED9D     C9         	RET                
2543: ED9E                ;                   
2544: ED9E                ;   Compute (HL)=(DE)-(HL)
2545: ED9E                ;                   
2546: ED9E                DEminusHL2HL:       
2547: ED9E     7B         	MOV		A,E		;compute difference.
2548: ED9F     95         	SUB		L             
2549: EDA0     6F         	MOV		L,A		;store low byte.
2550: EDA1     7A         	MOV		A,D           
2551: EDA2     9C         	SBB		H             
2552: EDA3     67         	MOV		H,A		;and then high byte.
2553: EDA4     C9         	RET                
2554: EDA5                ;                   
2555: EDA5                ;   Set the directory checksum byte.
2556: EDA5                ;                   
2557: EDA5                SETDIR:             
2558: EDA5     0EFF       	MVI	C,0FFH         
2559: EDA7                ;                   
2560: EDA7                ;   Routine to set or compare the directory checksum byte. If
2561: EDA7                ; (C)=0ffh, then this will set the checksum byte. Else the byte
2562: EDA7                ; will be checked. If the check fails (the disk has been changed),
2563: EDA7                ; then this disk will be write protected.
2564: EDA7                ;                   
2565: EDA7                CHECKDIR:           
2566: EDA7     2AE3F5     	LHLD	CheckSumTable 
2567: EDAA     EB         	XCHG               
2568: EDAB     2AC4F5     	LHLD	DirectoryFAT1 
2569: EDAE     CD9EED     	CALL	DEminusHL2HL  
2570: EDB1     D0         	RNC		;ok if (CheckSumTable) > (DirectoryFAT1), so return.
2571: EDB2     C5         	PUSH	B             
2572: EDB3     CD1AED     	CALL	CheckSum;else compute checksum.
2573: EDB6     2AB5F5     	LHLD	CHKVECT	;get address of checksum table.
2574: EDB9     EB         	XCHG               
2575: EDBA     2AE3F5     	LHLD	CheckSumTable 
2576: EDBD     19         	DAD	D	;set (HL) to point to byte for this drive.
2577: EDBE     C1         	POP	B              
2578: EDBF     0C         	INR	C	;set or check ?
2579: EDC0     CACDED     	JZ	CHKDIR1         
2580: EDC3     BE         	CMP	M	;check them. 
2581: EDC4     C8         	RZ		;return if they are the same.
2582: EDC5     CD88ED     	CALL	MOREFLS	;not the same, do we care?
2583: EDC8     D0         	RNC                
2584: EDC9     CD35ED     	CALL	fcSetDiskRO	;yes, mark this as write protected.
2585: EDCC     C9         	RET                
2586: EDCD                CHKDIR1:            
2587: EDCD     77         	MOV	M,A	;just set the byte.
2588: EDCE     C9         	RET                
2589: EDCF                ;                   
2590: EDCF                ;   Do a write to the directory of the current disk.
2591: EDCF                ;                   
2592: EDCF                DIRWRITE:           
2593: EDCF     CDA5ED     	CALL	SETDIR			;set checksum byte.
2594: EDD2     CDE9ED     	CALL	SetDirDMA		;set directory dma address.
2595: EDD5     0E01       	MVI		C,1				;tell the bios to actually write.
2596: EDD7     CDDBEB     	CALL	DOWRITE			;then do the write.
2597: EDDA     C3E3ED     	JMP		Set2UsersDMA  
2598: EDDD                ;                   
2599: EDDD                ;   Read from the directory.
2600: EDDD                ;                   
2601: EDDD                DIRREAD:            
2602: EDDD     CDE9ED     	CALL	SetDirDMA	;set the directory dma address.
2603: EDE0     CDD5EB     	CALL	DOREAD	;and read it.
2604: EDE3                ;                   
2605: EDE3                ;   Routine to set the dma address to the users choice.
2606: EDE3                ;                   
2607: EDE3                Set2UsersDMA:       
2608: EDE3     21A9F5     	LXI		H,UsersDMA		;reset the default dma address and return.
2609: EDE6     C3ECED     	JMP		SetDMA0       
2610: EDE9                ;                   
2611: EDE9                ;   Routine to set the dma address for directory work.
2612: EDE9                ;                   
2613: EDE9                SetDirDMA:          
2614: EDE9     21B1F5     	LXI		H,DirBuffAddr 
2615: EDEC                ;                   
2616: EDEC                ;   Set the dma address. On entry, (HL) points to
2617: EDEC                ; word containing the desired dma address.
2618: EDEC                ;                   
2619: EDEC                SetDMA0:            
2620: EDEC     4E         	MOV		C,M           
2621: EDED     23         	INX		H             
2622: EDEE     46         	MOV		B,M			;setup (BC) and go to the bios to set it.
2623: EDEF     C324F6     	JMP		biosSetDMA    
2624: EDF2                ;                   
2625: EDF2                ;   Move the directory buffer into user's dma space.
2626: EDF2                ;                   
2627: EDF2                MOVEDIR:            
2628: EDF2     2AB1F5     	LHLD	DirBuffAddr	;buffer is located here, and
2629: EDF5     EB         	XCHG               
2630: EDF6     2AA9F5     	LHLD	UsersDMA; put it here.
2631: EDF9     0E80       	MVI	C,DirBuffSize	;this is its length.
2632: EDFB     C372EB     	JMP	DEtoHL	;move it now and return.
2633: EDFE                ;                   
2634: EDFE                ;   Check (FilePosInDirectory) and set the zero flag if it equals 0ffffh.
2635: EDFE                ; if it is -1 then no active file found
2636: EDFE                ;                   
2637: EDFE                CheckFilePosition:  
2638: EDFE     21E1F5     	LXI	H,FilePosInDirectory
2639: EE01     7E         	MOV	A,M            
2640: EE02     23         	INX	H              
2641: EE03     BE         	CMP	M	;are both bytes the same?
2642: EE04     C0         	RNZ                
2643: EE05     3C         	INR	A	;yes, but are they each 0ffh?
2644: EE06     C9         	RET                
2645: EE07                ;                   
2646: EE07                ;   Set location (FilePosInDirectory) to 0ffffh.
2647: EE07                ;                   
2648: EE07                InitializeFilePosition:
2649: EE07     21FFFF     	LXI		H,-1          
2650: EE0A     22E1F5     	SHLD	FilePosInDirectory
2651: EE0D     C9         	RET                
2652: EE0E                ;                   
2653: EE0E                ;   Move on to the next file position within the current
2654: EE0E                ; directory buffer. If no more exist, set pointer to 0ffffh
2655: EE0E                ; and the calling routine will check for this. Enter with (C)
2656: EE0E                ; equal to 0ffh to cause the checksum byte to be set, else we
2657: EE0E                ; will check this disk and set write protect if checksums are
2658: EE0E                ; not the same (applies only if another directory sector must
2659: EE0E                ; be read).         
2660: EE0E                ;                   
2661: EE0E                GetNextEntry:       
2662: EE0E     2AC0F5     	LHLD	DrectorySize				; get directory entry size limit.
2663: EE11     EB         	XCHG               
2664: EE12     2AE1F5     	LHLD	FilePosInDirectory			; get index into directory.
2665: EE15     23         	INX		H					        
2666: EE16     22E1F5     	SHLD	FilePosInDirectory			; save  the next location
2667: EE19     CD9EED     	CALL	DEminusHL2HL				; (HL)=(DrectorySize)-(FilePosInDirectory)
2668: EE1C     DA07EE     	JC		InitializeFilePosition		; If no more entries, set this flag and exit.
2669: EE1F                ;	JNC		GetNextEntry1		; are there any more entries?
2670: EE1F                ;	JMP		InitializeFilePosition		; No. - Set this flag and return.	
2671: EE1F                ;GetNextEntry1:     
2672: EE1F                                    
2673: EE1F     3AE1F5     	LDA		FilePosInDirectory		; Get current index for file in the  directory.
2674: EE22     E603       	ANI		03H						; only look within this sector (only 4 entries fit).
2675: EE24                									; - so taking the mod of position in directory
2676: EE24                									;  - gives us the relative position in the sector
2677: EE24     87         	ADD		A						; a * 2  - each directory entry is 32 bytes long.
2678: EE25     87         	ADD		A						; a * 4 - so relative position * 32 gives us the 
2679: EE26     87         	ADD		A						; a * 8  - start of the directory entry for this
2680: EE27     87         	ADD		A						; a * 16 - file
2681: EE28     87         	ADD		A						; a * 32
2682: EE29                									; The value in A is: 0,32,64 or 96
2683: EE29                	                   
2684: EE29                ;	MVI		B,5					; convert to relative position (32 bytes each).
2685: EE29                ;GetNextEntry2:     
2686: EE29                ;	ADD		A			;note that this is not efficient code.
2687: EE29                ;	DCR		B			;5 'ADD A's would be better.
2688: EE29                ;	JNZ		GetNextEntry2
2689: EE29                	                   
2690: EE29     32E0F5     	STA		FCBPosition			; save it as position of fcb.
2691: EE2C     B7         	ORA		A             
2692: EE2D     C0         	RNZ						; return if we are within buffer. ?????????
2693: EE2E     C5         	PUSH	B					; save C, checksum behavior flag
2694: EE2F     CDE6EB     	CALL	TrackSectorForDir		;we need the next directory sector.
2695: EE32     CDDDED     	CALL	DIRREAD       
2696: EE35     C1         	POP		B             
2697: EE36     C3A7ED     	JMP		CHECKDIR      
2698: EE39                ;                   
2699: EE39                ;   Routine to to get a bit from the disk space allocation
2700: EE39                ; map. It is returned in (A), bit position 0. On entry to here,
2701: EE39                ; set (BC) to the block number on the disk to check.
2702: EE39                ; On return, (D) will contain the original bit position for
2703: EE39                ; this block number and (HL) will point to the address for it.
2704: EE39                ; Bit is determined by Block Number Mod 8
2705: EE39                ; Byte is determined by Block Number / 8
2706: EE39                                    
2707: EE39                CKBITMAP:           
2708: EE39     79         	MOV		A,C			; Determine Bit  interest.
2709: EE3A     E607       	ANI		07H			; mod 8 
2710: EE3C     3C         	INR		A			; add 1? and save
2711: EE3D     5F         	MOV		E,A			; Save particular bit number.
2712: EE3E     57         	MOV		D,A			; save it again
2713: EE3F                ;                     
2714: EE3F                ;   compute (BC)=(BC)/8.
2715: EE3F                ;   to determin in which Allocation block the number resides
2716: EE3F                ;                   
2717: EE3F     79         	MOV		A,C			; get the block
2718: EE40     0F         	RRC					; now shift right 3 bits.
2719: EE41     0F         	RRC      	  		; to divide by 8
2720: EE42     0F         	RRC                
2721: EE43     E61F       	ANI		1FH			; and clear bits 7,6,5.
2722: EE45     4F         	MOV		C,A			; put result in c           
2723: EE46     78         	MOV		A,B			           
2724: EE47     87         	ADD		A			; now shift
2725: EE48     87         	ADD		A           ; hi byte's bits 0,1 & 2   
2726: EE49     87         	ADD		A           ; int bit positions 6,7, & 8  
2727: EE4A     87         	ADD		A           ; so we can put continue the   
2728: EE4B     87         	ADD		A           ; divide by 8 of the whole word  
2729: EE4C     B1         	ORA		C			; combile with (C)(bits 0,1,2,3 & 4).
2730: EE4D     4F         	MOV		C,A			; ok, (C), the low byte has been completed.
2731: EE4E     78         	MOV		A,B			; Now to finish with
2732: EE4F     0F         	RRC 	       		; the high order byte                
2733: EE50     0F         	RRC                
2734: EE51     0F         	RRC 	       		; divide by 8
2735: EE52     E61F       	ANI		1FH			; zero out bits 5,6 & 7           
2736: EE54     47         	MOV		B,A			;and now (B) is completed.
2737: EE55                ;                     
2738: EE55                ;   use this as an offset into the disk space allocation
2739: EE55                ; table.            
2740: EE55                ;                   
2741: EE55     2AB7F5     	LHLD	FATpointer    
2742: EE58     09         	DAD	B              
2743: EE59     7E         	MOV	A,M				; we now have correct byte.
2744: EE5A                CKBMAP1:            
2745: EE5A     07         	RLC		;get correct bit into position 0.
2746: EE5B     1D         	DCR	E              
2747: EE5C     C25AEE     	JNZ	CKBMAP1        
2748: EE5F     C9         	RET                
2749: EE60                ;                   
2750: EE60                ;   Set or clear the bit map such that block number (BC) will be marked
2751: EE60                ; as used. On entry, if (E)=0 then this bit will be cleared, if it equals
2752: EE60                ; 1 then it will be set (don't use anyother values).
2753: EE60                ;                   
2754: EE60                STBITMAP:           
2755: EE60                ;	PUSH	D				; Save Set/Clear indicator
2756: EE60     CD39EE     	CALL	CKBITMAP		; Get the byte of interest.
2757: EE63     E6FE       	ANI		0FEH			; clear the affected bit.
2758: EE65     4F         	MOV		C,A				; Save it in C
2759: EE66     3AA3F5     	LDA		BitSetFlag		; get the flag
2760: EE69     B1         	ORA		C				; and now set(01)/reset(01) acording to flag
2761: EE6A                ;	POP	B             
2762: EE6A                ;	ORA	C	;and now set it acording to (C).
2763: EE6A                ;                   
2764: EE6A                ;  entry to restore the original bit position and then store
2765: EE6A                ; in table. (A) contains the value, (D) contains the bit
2766: EE6A                ; position (1-8), and (HL) points to the address within the
2767: EE6A                ; space allocation table for this byte.
2768: EE6A                ;                   
2769: EE6A                STBMAP1:            
2770: EE6A     0F         	RRC		;restore original bit position.
2771: EE6B     15         	DCR	D              
2772: EE6C     C26AEE     	JNZ	STBMAP1        
2773: EE6F     77         	MOV	M,A	;and stor byte in table.
2774: EE70     C9         	RET                
2775: EE71                ;                   
2776: EE71                ;   Set/clear space used bits in allocation map for this file.
2777: EE71                ; On entry, (C)=1 to set the map and (C)=0 to clear it.
2778: EE71                ;                   
2779: EE71                SetClearFATbits:    
2780: EE71     CD67ED     	CALL	FCB2HL			; Get address of fcb
2781: EE74     111000     	LXI		D,16			; Offset to Block Pointers in Directory entry
2782: EE77     19         	DAD		D				; Compute start to block number bytes. (A1..A10)
2783: EE78                ;	PUSH	B				; Save Set/Clear indicator 
2784: EE78     0E11       	MVI		C,17			; Check all 16 bytes (max) of table.
2785: EE7A                SETFL1:             
2786: EE7A                ;	POP		D				; Retreive Set/Clear indicator
2787: EE7A     0D         	DCR		C				; Counter
2788: EE7B     C8         	RZ						; Done?, then return
2789: EE7C                	                   
2790: EE7C                ;	PUSH	D				; Save Set/Clear indicator
2791: EE7C     3AD4F5     	LDA		SmallDisk			; check disk size .
2792: EE7F     B7         	ORA		A             
2793: EE80     CA8BEE     	JZ		SETFL2			; If it is a big disk, use 16 bits
2794: EE83                	                   
2795: EE83     C5         	PUSH	B				; Only 8 bit numbers. Save counter.
2796: EE84     E5         	PUSH	H				; Save pointer to current Allocation byte
2797: EE85     4E         	MOV		C,M				; Get low byte from table, always
2798: EE86     0600       	MVI		B,0				; Set high byte to zero.
2799: EE88     C391EE     	JMP		SETFL3			; skip 16 bit number processing
2800: EE8B                	                   
2801: EE8B                SETFL2:             
2802: EE8B     0D         	DCR		C				; Adjust counter for 16 bit block numbers,.
2803: EE8C     C5         	PUSH	B				; Save Counter
2804: EE8D     4E         	MOV		C,M				; Now get both the low and high bytes.
2805: EE8E     23         	INX		H             
2806: EE8F     46         	MOV		B,M           
2807: EE90     E5         	PUSH	H				; Save pointer to current Allocation byte
2808: EE91                SETFL3:             
2809: EE91     79         	MOV		A,C				; Block used? if both (b) and (c) are 00
2810: EE92     B0         	ORA		B				; the block is NOT used
2811: EE93     CAA0EE     	JZ		SETFL4			; NOT used move on			
2812: EE96     2ABEF5     	LHLD	DiskSize		; Is this block number within the
2813: EE99     7D         	MOV		A,L	          
2814: EE9A     91         	SUB		C             
2815: EE9B     7C         	MOV		A,H           
2816: EE9C     98         	SBB		B             
2817: EE9D     D460EE     	CNC		STBITMAP		; Yes, set the proper bit.
2818: EEA0                SETFL4:             
2819: EEA0     E1         	POP	H					; Point to next block number in fcb.
2820: EEA1     23         	INX	H              
2821: EEA2     C1         	POP	B					; Retreive the counter
2822: EEA3     C37AEE     	JMP	SETFL1         
2823: EEA6                                    
2824: EEA6                ;                   
2825: EEA6                ;   Set the status (StatusBDOSReturn) and return.
2826: EEA6                ;                   
2827: EEA6                STSTATUS:           
2828: EEA6     3ACCF5     	LDA	FNDSTAT        
2829: EEA9     C35CEB     	JMP	SetStatusBDOS  
2830: EEAC                ;                   
2831: EEAC                ;   Check extents in (A) and (C). Set the zero flag if they
2832: EEAC                ; are the same. The number of 16k chunks of disk space that
2833: EEAC                ; the directory extent covers is expressad is (EXTMASK+1).
2834: EEAC                ; No registers are modified.
2835: EEAC                ;                   
2836: EEAC                SAMEXT:             
2837: EEAC     C5         	PUSH	B             
2838: EEAD     F5         	PUSH	PSW           
2839: EEAE     3ABDF5     	LDA	EXTMASK	;get extent mask and use it to
2840: EEB1     2F         	CMA		;to compare both extent numbers.
2841: EEB2     47         	MOV	B,A	;save resulting mask here.
2842: EEB3     79         	MOV	A,C	;mask first extent and save in (C).
2843: EEB4     A0         	ANA	B              
2844: EEB5     4F         	MOV	C,A            
2845: EEB6     F1         	POP	PSW	;now mask second extent and compare
2846: EEB7     A0         	ANA	B	;with the first one.
2847: EEB8     91         	SUB	C              
2848: EEB9     E61F       	ANI	1FH	;(* only check buts 0-4 *)
2849: EEBB     C1         	POP	B	;the zero flag is set if they are the same.
2850: EEBC     C9         	RET		;restore (BC) and return.
2851: EEBD                ;                   
2852: EEBD                ;   Search for the first occurence of a file name. On entry,
2853: EEBD                ; register (C) should contain the number of bytes of the fcb
2854: EEBD                ; that must match.  
2855: EEBD                ;                   
2856: EEBD                FindFirst:          
2857: EEBD     3EFF       	MVI		A,0FFH        
2858: EEBF     32CCF5     	STA		FNDSTAT			; set flag to not match found
2859: EEC2     21CFF5     	LXI		H,COUNTER		; point at character counter.
2860: EEC5     71         	MOV		M,C				; put in number of bytes to match
2861: EEC6     2A3CE8     	LHLD	ParamsDE		; get filename to match.
2862: EEC9     22D0F5     	SHLD	SaveFCB			; and save.
2863: EECC     CD07EE     	CALL	InitializeFilePosition	; clear initial file position (set to 0ffffh).
2864: EECF     CDC4EB     	CALL	HomeDrive		;home the drive.
2865: EED2                ;                   
2866: EED2                ;   Entry to locate the next occurence of a filename within the
2867: EED2                ; directory. The disk is not expected to have been changed. If
2868: EED2                ; it was, then it will be write protected.
2869: EED2                ;                   
2870: EED2                FINDNXT:            
2871: EED2     0E00       	MVI		C,0				; write protect the disk if changed.
2872: EED4     CD0EEE     	CALL	GetNextEntry	; get next filename entry in directory.
2873: EED7     CDFEED     	CALL	CheckFilePosition	; is file position = 0ffffh?
2874: EEDA     CA39EF     	JZ		FNDNXT6			; yes, exit now then.
2875: EEDD     2AD0F5     	LHLD	SaveFCB			; get (DE) pointing to filename to match.
2876: EEE0     EB         	XCHG               
2877: EEE1     1A         	LDAX	D             
2878: EEE2     FEE5       	CPI		EmptyFileFlag	; is it an empty directory entry?
2879: EEE4     CAEFEE     	JZ		FNDNXT1			; yes - Skip it
2880: EEE7                						; No process it
2881: EEE7     D5         	PUSH	D             
2882: EEE8     CD88ED     	CALL	MOREFLS	;more files in directory?
2883: EEEB     D1         	POP	D              
2884: EEEC     D239EF     	JNC	FNDNXT6	;no more. Exit now.
2885: EEEF                FNDNXT1:            
2886: EEEF     CD67ED     	CALL	FCB2HL	;get address of this fcb in directory.
2887: EEF2     3ACFF5     	LDA	COUNTER	;get number of bytes (characters) to check.
2888: EEF5     4F         	MOV	C,A            
2889: EEF6     0600       	MVI	B,0	;initialize byte position counter.
2890: EEF8                FNDNXT2:            
2891: EEF8     79         	MOV	A,C	;are we done with the compare?
2892: EEF9     B7         	ORA	A              
2893: EEFA     CA28EF     	JZ	FNDNXT5         
2894: EEFD     1A         	LDAX	D	;no, check next byte.
2895: EEFE     FE3F       	CPI	QMARK		; '?'	;don't care about this character?
2896: EF00     CA21EF     	JZ	FNDNXT4         
2897: EF03     78         	MOV	A,B	;get bytes position in fcb.
2898: EF04     FE0D       	CPI	13	;don't care about the thirteenth byte either.
2899: EF06     CA21EF     	JZ	FNDNXT4         
2900: EF09     FE0C       	CPI	12	;extent byte?
2901: EF0B     1A         	LDAX	D             
2902: EF0C     CA18EF     	JZ	FNDNXT3         
2903: EF0F     96         	SUB	M	;otherwise compare characters.
2904: EF10     E67F       	ANI	7FH            
2905: EF12     C2D2EE     	JNZ	FINDNXT	;not the same, check next entry.
2906: EF15     C321EF     	JMP	FNDNXT4	;so far so good, keep checking.
2907: EF18                FNDNXT3:            
2908: EF18     C5         	PUSH	B	;check the extent byte here.
2909: EF19     4E         	MOV	C,M            
2910: EF1A     CDACEE     	CALL	SAMEXT        
2911: EF1D     C1         	POP	B              
2912: EF1E     C2D2EE     	JNZ	FINDNXT	;not the same, look some more.
2913: EF21                ;                   
2914: EF21                ;   So far the names compare. Bump pointers to the next byte
2915: EF21                ; and continue until all (C) characters have been checked.
2916: EF21                ;                   
2917: EF21                FNDNXT4:            
2918: EF21     13         	INX	D	;bump pointers.
2919: EF22     23         	INX	H              
2920: EF23     04         	INR	B              
2921: EF24     0D         	DCR	C	;adjust character counter.
2922: EF25     C3F8EE     	JMP	FNDNXT2        
2923: EF28                FNDNXT5:            
2924: EF28     3AE1F5     	LDA	FilePosInDirectory	;return the position of this entry.
2925: EF2B     E603       	ANI	03H            
2926: EF2D     323FE8     	STA	StatusBDOSReturn
2927: EF30     21CCF5     	LXI	H,FNDSTAT      
2928: EF33     7E         	MOV	A,M            
2929: EF34     17         	RAL                
2930: EF35     D0         	RNC                
2931: EF36     AF         	XRA	A              
2932: EF37     77         	MOV	M,A            
2933: EF38     C9         	RET                
2934: EF39                ;                   
2935: EF39                ;   Filename was not found. Set appropriate status.
2936: EF39                ;                   
2937: EF39                FNDNXT6:            
2938: EF39     CD07EE     	CALL	InitializeFilePosition;set (FilePosInDirectory) to 0ffffh.
2939: EF3C     3EFF       	MVI	A,0FFH	;say not located.
2940: EF3E     C35CEB     	JMP	SetStatusBDOS  
2941: EF41                ;                   
2942: EF41                ;   Erase files from the directory. Only the first byte of the
2943: EF41                ; fcb will be affected. It is set to (E5).
2944: EF41                ;                   
2945: EF41                ERAFILE:            
2946: EF41     CD5DED     	CALL	CHKWPRT		;is disk write protected?
2947: EF44     0E0C       	MVI		C,12		;only compare file names.
2948: EF46     CDBDEE     	CALL	FindFirst		;get first file name.
2949: EF49                ERAFIL1:            
2950: EF49     CDFEED     	CALL	CheckFilePosition	;any found?
2951: EF4C     C8         	RZ					;nope, we must be done.
2952: EF4D     CD4DED     	CALL	CHKROFL	;is file read only?
2953: EF50     CD67ED     	CALL	FCB2HL	;nope, get address of fcb and
2954: EF53     36E5       	MVI	M,EmptyFileFlag	;set first byte to 'empty'.
2955: EF55                ;	MVI	C,0	;clear the space from the bit map.
2956: EF55     3E00       	MVI		A,00H		; want to clear the bit
2957: EF57     32A3F5     	STA		BitSetFlag	; Flag = 00, clear bit
2958: EF5A     CD71EE     	CALL	SetClearFATbits
2959: EF5D     CDCFED     	CALL	DIRWRITE;now write the directory sector back out.
2960: EF60     CDD2EE     	CALL	FINDNXT	;find the next file name.
2961: EF63     C349EF     	JMP	ERAFIL1	;and repeat process.
2962: EF66                ;                   
2963: EF66                ;   Look through the space allocation map (bit map) for the
2964: EF66                ; next available block. Start searching at block number (BC-1).
2965: EF66                ; The search procedure is to look for an empty block that is
2966: EF66                ; before the starting block. If not empty, look at a later
2967: EF66                ; block number. In this way, we return the closest empty block
2968: EF66                ; on either side of the 'target' block number. This will speed
2969: EF66                ; access on random devices. For serial devices, this should be
2970: EF66                ; changed to look in the forward direction first and then start
2971: EF66                ; at the front and search some more.
2972: EF66                ;                   
2973: EF66                ;   On return, (DE)= block number that is empty and (HL) =0
2974: EF66                ; if no empry block was found.
2975: EF66                ;                   
2976: EF66                FNDSPACE:           
2977: EF66     50         	MOV	D,B	;set (DE) as the block that is checked.
2978: EF67     59         	MOV	E,C            
2979: EF68                ;                   
2980: EF68                ;   Look before target block. Registers (BC) are used as the lower
2981: EF68                ; pointer and (DE) as the upper pointer.
2982: EF68                ;                   
2983: EF68                FNDSPA1:            
2984: EF68     79         	MOV	A,C	;is block 0 specified?
2985: EF69     B0         	ORA	B              
2986: EF6A     CA79EF     	JZ	FNDSPA2         
2987: EF6D     0B         	DCX	B	;nope, check previous block.
2988: EF6E     D5         	PUSH	D             
2989: EF6F     C5         	PUSH	B             
2990: EF70     CD39EE     	CALL	CKBITMAP      
2991: EF73     1F         	RAR		;is this block empty?
2992: EF74     D294EF     	JNC	FNDSPA3	;yes. use this.
2993: EF77                ;                   
2994: EF77                ;   Note that the above logic gets the first block that it finds
2995: EF77                ; that is empty. Thus a file could be written 'backward' making
2996: EF77                ; it very slow to access. This could be changed to look for the
2997: EF77                ; first empty block and then continue until the start of this
2998: EF77                ; empty space is located and then used that starting block.
2999: EF77                ; This should help speed up access to some files especially on
3000: EF77                ; a well used disk with lots of fairly small 'holes'.
3001: EF77                ;                   
3002: EF77     C1         	POP	B	;nope, check some more.
3003: EF78     D1         	POP	D              
3004: EF79                ;                   
3005: EF79                ;   Now look after target block.
3006: EF79                ;                   
3007: EF79                FNDSPA2:            
3008: EF79     2ABEF5     	LHLD	DiskSize	;is block (DE) within disk limits?
3009: EF7C     7B         	MOV	A,E            
3010: EF7D     95         	SUB	L              
3011: EF7E     7A         	MOV	A,D            
3012: EF7F     9C         	SBB	H              
3013: EF80     D29CEF     	JNC	FNDSPA4        
3014: EF83     13         	INX	D	;yes, move on to next one.
3015: EF84     C5         	PUSH	B             
3016: EF85     D5         	PUSH	D             
3017: EF86     42         	MOV	B,D            
3018: EF87     4B         	MOV	C,E            
3019: EF88     CD39EE     	CALL	CKBITMAP;check it.
3020: EF8B     1F         	RAR		;empty?       
3021: EF8C     D294EF     	JNC	FNDSPA3        
3022: EF8F     D1         	POP	D	;nope, continue searching.
3023: EF90     C1         	POP	B              
3024: EF91     C368EF     	JMP	FNDSPA1        
3025: EF94                ;                   
3026: EF94                ;   Empty block found. Set it as used and return with (HL)
3027: EF94                ; pointing to it (true?).
3028: EF94                ;                   
3029: EF94                FNDSPA3:            
3030: EF94     17         	RAL		;reset byte.  
3031: EF95     3C         	INR	A	;and set bit 0.
3032: EF96     CD6AEE     	CALL	STBMAP1	;update bit map.
3033: EF99     E1         	POP	H	;set return registers.
3034: EF9A     D1         	POP	D              
3035: EF9B     C9         	RET                
3036: EF9C                ;                   
3037: EF9C                ;   Free block was not found. If (BC) is not zero, then we have
3038: EF9C                ; not checked all of the disk space.
3039: EF9C                ;                   
3040: EF9C                FNDSPA4:            
3041: EF9C     79         	MOV	A,C            
3042: EF9D     B0         	ORA	B              
3043: EF9E     C268EF     	JNZ	FNDSPA1        
3044: EFA1     210000     	LXI	H,0	;set 'not found' status.
3045: EFA4     C9         	RET                
3046: EFA5                ;                   
3047: EFA5                ;   Move a complete fcb entry into the directory and write it.
3048: EFA5                ;                   
3049: EFA5                FCBSET:             
3050: EFA5     0E00       	MVI	C,0            
3051: EFA7     1E20       	MVI	E,32	;length of each entry.
3052: EFA9                ;                   
3053: EFA9                ;   Move (E) bytes from the fcb pointed to by (ParamsDE) into
3054: EFA9                ; fcb in directory starting at relative byte (C). This updated
3055: EFA9                ; directory buffer is then written to the disk.
3056: EFA9                ;                   
3057: EFA9                UPDATE:             
3058: EFA9     D5         	PUSH	D             
3059: EFAA     0600       	MVI	B,0	;set (BC) to relative byte position.
3060: EFAC     2A3CE8     	LHLD	ParamsDE	;get address of fcb.
3061: EFAF     09         	DAD	B	;compute starting byte.
3062: EFB0     EB         	XCHG               
3063: EFB1     CD67ED     	CALL	FCB2HL	;get address of fcb to update in directory.
3064: EFB4     C1         	POP	B	;set (C) to number of bytes to change.
3065: EFB5     CD72EB     	CALL	DEtoHL        
3066: EFB8                UPDATE1:            
3067: EFB8     CDE6EB     	CALL	TrackSectorForDir	;determine the track and sector affected.
3068: EFBB     C3CFED     	JMP	DIRWRITE	;then write this sector out.
3069: EFBE                ;                   
3070: EFBE                ;   Routine to change the name of all files on the disk with a
3071: EFBE                ; specified name. The fcb contains the current name as the
3072: EFBE                ; first 12 characters and the new name 16 bytes into the fcb.
3073: EFBE                ;                   
3074: EFBE                CHGNAMES:           
3075: EFBE     CD5DED     	CALL	CHKWPRT	;check for a write protected disk.
3076: EFC1     0E0C       	MVI	C,12	;match first 12 bytes of fcb only.
3077: EFC3     CDBDEE     	CALL	FindFirst	;get first name.
3078: EFC6     2A3CE8     	LHLD	ParamsDE	;get address of fcb.
3079: EFC9     7E         	MOV	A,M	;get user number.
3080: EFCA     111000     	LXI	D,16	;move over to desired name.
3081: EFCD     19         	DAD	D              
3082: EFCE     77         	MOV	M,A	;keep same user number.
3083: EFCF                CHGNAM1:            
3084: EFCF     CDFEED     	CALL	CheckFilePosition;any matching file found?
3085: EFD2     C8         	RZ		;no, we must be done.
3086: EFD3     CD4DED     	CALL	CHKROFL	;check for read only file.
3087: EFD6     0E10       	MVI	C,16	;start 16 bytes into fcb.
3088: EFD8     1E0C       	MVI	E,12	;and update the first 12 bytes of directory.
3089: EFDA     CDA9EF     	CALL	UPDATE        
3090: EFDD     CDD2EE     	CALL	FINDNXT	;get te next file name.
3091: EFE0     C3CFEF     	JMP	CHGNAM1	;and continue.
3092: EFE3                ;                   
3093: EFE3                ;   Update a files attributes. The procedure is to search for
3094: EFE3                ; every file with the same name as shown in fcb (ignoring bit 7)
3095: EFE3                ; and then to update it (which includes bit 7). No other changes
3096: EFE3                ; are made.         
3097: EFE3                ;                   
3098: EFE3                SAVEATTR:           
3099: EFE3     0E0C       	MVI	C,12	;match first 12 bytes.
3100: EFE5     CDBDEE     	CALL	FindFirst	;look for first filename.
3101: EFE8                SAVATR1:            
3102: EFE8     CDFEED     	CALL	CheckFilePosition;was one found?
3103: EFEB     C8         	RZ		;nope, we must be done.
3104: EFEC     0E00       	MVI	C,0	;yes, update the first 12 bytes now.
3105: EFEE     1E0C       	MVI	E,12           
3106: EFF0     CDA9EF     	CALL	UPDATE	;update filename and write directory.
3107: EFF3     CDD2EE     	CALL	FINDNXT	;and get the next file.
3108: EFF6     C3E8EF     	JMP	SAVATR1	;then continue until done.
3109: EFF9                ;                   
3110: EFF9                ;  Open a file (name specified in fcb).
3111: EFF9                ;                   
3112: EFF9                OPENIT:             
3113: EFF9     0E0F       	MVI	C,15	;compare the first 15 bytes.
3114: EFFB     CDBDEE     	CALL	FindFirst	;get the first one in directory.
3115: EFFE     CDFEED     	CALL	CheckFilePosition;any at all?
3116: F001     C8         	RZ                 
3117: F002                OPENIT1:            
3118: F002     CDC9EC     	CALL	SETEXT	;point to extent byte within users fcb.
3119: F005     7E         	MOV	A,M	;and get it.
3120: F006     F5         	PUSH	PSW	;save it and address.
3121: F007     E5         	PUSH	H             
3122: F008     CD67ED     	CALL	FCB2HL	;point to fcb in directory.
3123: F00B     EB         	XCHG               
3124: F00C     2A3CE8     	LHLD	ParamsDE	;this is the users copy.
3125: F00F     0E20       	MVI	C,32	;move it into users space.
3126: F011     D5         	PUSH	D             
3127: F012     CD72EB     	CALL	DEtoHL        
3128: F015     CD81ED     	CALL	SETS2B7	;set bit 7 in 's2' byte (unmodified).
3129: F018     D1         	POP	D	;now get the extent byte from this fcb.
3130: F019     210C00     	LXI	H,12           
3131: F01C     19         	DAD	D              
3132: F01D     4E         	MOV	C,M	;into (C). 
3133: F01E     210F00     	LXI	H,15	;now get the record count byte into (B).
3134: F021     19         	DAD	D              
3135: F022     46         	MOV	B,M            
3136: F023     E1         	POP	H	;keep the same extent as the user had originally.
3137: F024     F1         	POP	PSW            
3138: F025     77         	MOV	M,A            
3139: F026     79         	MOV	A,C	;is it the same as in the directory fcb?
3140: F027     BE         	CMP	M              
3141: F028     78         	MOV	A,B	;if yes, then use the same record count.
3142: F029     CA33F0     	JZ	OPENIT2         
3143: F02C     3E00       	MVI	A,0	;if the user specified an extent greater than
3144: F02E     DA33F0     	JC	OPENIT2	;the one in the directory, then set record count to 0.
3145: F031     3E80       	MVI	A,DirBuffSize	;otherwise set to maximum.
3146: F033                OPENIT2:            
3147: F033     2A3CE8     	LHLD	ParamsDE	;set record count in users fcb to (A).
3148: F036     110F00     	LXI	D,15           
3149: F039     19         	DAD	D	;compute relative position.
3150: F03A     77         	MOV	M,A	;and set the record count.
3151: F03B     C9         	RET                
3152: F03C                ;                   
3153: F03C                ;   Move two bytes from (DE) to (HL) if (and only if) (HL)
3154: F03C                ; point to a zero value (16 bit).
3155: F03C                ;   Return with zero flag set it (DE) was moved. Registers (DE)
3156: F03C                ; and (HL) are not changed. However (A) is.
3157: F03C                ;                   
3158: F03C                MOVEWORD:           
3159: F03C     7E         	MOV	A,M	;check for a zero word.
3160: F03D     23         	INX	H              
3161: F03E     B6         	ORA	M	;both bytes zero?
3162: F03F     2B         	DCX	H              
3163: F040     C0         	RNZ		;nope, just return.
3164: F041     1A         	LDAX	D	;yes, move two bytes from (DE) into
3165: F042     77         	MOV	M,A	;this zero space.
3166: F043     13         	INX	D              
3167: F044     23         	INX	H              
3168: F045     1A         	LDAX	D             
3169: F046     77         	MOV	M,A            
3170: F047     1B         	DCX	D	;don't disturb these registers.
3171: F048     2B         	DCX	H              
3172: F049     C9         	RET                
3173: F04A                ;                   
3174: F04A                ;   Get here to close a file specified by (fcb).
3175: F04A                ;                   
3176: F04A                CLOSEIT:            
3177: F04A     AF         	XRA	A	;clear status and file position bytes.
3178: F04B     323FE8     	STA	StatusBDOSReturn
3179: F04E     32E1F5     	STA	FilePosInDirectory
3180: F051     32E2F5     	STA	FilePosInDirectory+1
3181: F054     CD27ED     	CALL	GETWPRT	;get write protect bit for this drive.
3182: F057     C0         	RNZ		;just return if it is set.
3183: F058     CD72ED     	CALL	GETS2	;else get the 's2' byte.
3184: F05B     E680       	ANI	80H	;and look at bit 7 (file unmodified?).
3185: F05D     C0         	RNZ		;just return if set.
3186: F05E     0E0F       	MVI	C,15	;else look up this file in directory.
3187: F060     CDBDEE     	CALL	FindFirst     
3188: F063     CDFEED     	CALL	CheckFilePosition;was it found?
3189: F066     C8         	RZ		;just return if not.
3190: F067     011000     	LXI	B,16	;set (HL) pointing to records used section.
3191: F06A     CD67ED     	CALL	FCB2HL        
3192: F06D     09         	DAD	B              
3193: F06E     EB         	XCHG               
3194: F06F     2A3CE8     	LHLD	ParamsDE	;do the same for users specified fcb.
3195: F072     09         	DAD	B              
3196: F073     0E10       	MVI	C,16	;this many bytes are present in this extent.
3197: F075                CLOSEIT1:           
3198: F075     3AD4F5     	LDA	SmallDisk	;8 or 16 bit record numbers?
3199: F078     B7         	ORA	A              
3200: F079     CA90F0     	JZ	CLOSEIT4        
3201: F07C     7E         	MOV	A,M	;just 8 bit. Get one from users fcb.
3202: F07D     B7         	ORA	A              
3203: F07E     1A         	LDAX	D	;now get one from directory fcb.
3204: F07F     C283F0     	JNZ	CLOSEIT2       
3205: F082     77         	MOV	M,A	;users byte was zero. Update from directory.
3206: F083                CLOSEIT2:           
3207: F083     B7         	ORA	A              
3208: F084     C289F0     	JNZ	CLOSEIT3       
3209: F087     7E         	MOV	A,M	;directories byte was zero, update from users fcb.
3210: F088     12         	STAX	D             
3211: F089                CLOSEIT3:           
3212: F089     BE         	CMP	M	;if neither one of these bytes were zero,
3213: F08A     C2C7F0     	JNZ	CLOSEIT7	;then close error if they are not the same.
3214: F08D     C3A5F0     	JMP	CLOSEIT5	;ok so far, get to next byte in fcbs.
3215: F090                CLOSEIT4:           
3216: F090     CD3CF0     	CALL	MOVEWORD;update users fcb if it is zero.
3217: F093     EB         	XCHG               
3218: F094     CD3CF0     	CALL	MOVEWORD;update directories fcb if it is zero.
3219: F097     EB         	XCHG               
3220: F098     1A         	LDAX	D	;if these two values are no different,
3221: F099     BE         	CMP	M	;then a close error occured.
3222: F09A     C2C7F0     	JNZ	CLOSEIT7       
3223: F09D     13         	INX	D	;check second byte.
3224: F09E     23         	INX	H              
3225: F09F     1A         	LDAX	D             
3226: F0A0     BE         	CMP	M              
3227: F0A1     C2C7F0     	JNZ	CLOSEIT7       
3228: F0A4     0D         	DCR	C	;remember 16 bit values.
3229: F0A5                CLOSEIT5:           
3230: F0A5     13         	INX	D	;bump to next item in table.
3231: F0A6     23         	INX	H              
3232: F0A7     0D         	DCR	C	;there are 16 entries only.
3233: F0A8     C275F0     	JNZ	CLOSEIT1;continue if more to do.
3234: F0AB     01ECFF     	LXI	B,0FFECH;backup 20 places (extent byte).
3235: F0AE     09         	DAD	B              
3236: F0AF     EB         	XCHG               
3237: F0B0     09         	DAD	B              
3238: F0B1     1A         	LDAX	D             
3239: F0B2     BE         	CMP	M	;directory's extent already greater than the
3240: F0B3     DABFF0     	JC	CLOSEIT6	;users extent?
3241: F0B6     77         	MOV	M,A	;no, update directory extent.
3242: F0B7     010300     	LXI	B,3	;and update the record count byte in
3243: F0BA     09         	DAD	B	;directories fcb.
3244: F0BB     EB         	XCHG               
3245: F0BC     09         	DAD	B              
3246: F0BD     7E         	MOV	A,M	;get from user.
3247: F0BE     12         	STAX	D	;and put in directory.
3248: F0BF                CLOSEIT6:           
3249: F0BF     3EFF       	MVI	A,0FFH	;set 'was open and is now closed' byte.
3250: F0C1     32CAF5     	STA	CLOSEFLG       
3251: F0C4     C3B8EF     	JMP	UPDATE1	;update the directory now.
3252: F0C7                CLOSEIT7:           
3253: F0C7     213FE8     	LXI	H,StatusBDOSReturn;set return status and then return.
3254: F0CA     35         	DCR	M              
3255: F0CB     C9         	RET                
3256: F0CC                ;                   
3257: F0CC                ;   Routine to get the next empty space in the directory. It
3258: F0CC                ; will then be cleared for use.
3259: F0CC                ;                   
3260: F0CC                GETEMPTY:           
3261: F0CC     CD5DED     	CALL	CHKWPRT		;make sure disk is not write protected.
3262: F0CF     2A3CE8     	LHLD	ParamsDE	;save current parameters (fcb).
3263: F0D2     E5         	PUSH	H             
3264: F0D3     21A4F5     	LXI		H,EmptyDir	;use special one for empty space.
3265: F0D6     223CE8     	SHLD	ParamsDE      
3266: F0D9     0E01       	MVI	C,1	;search for first empty spot in directory.
3267: F0DB     CDBDEE     	CALL	FindFirst	;(* only check first byte *)
3268: F0DE     CDFEED     	CALL	CheckFilePosition;none?
3269: F0E1     E1         	POP	H              
3270: F0E2     223CE8     	SHLD	ParamsDE	;restore original fcb address.
3271: F0E5     C8         	RZ		;return if no more space.
3272: F0E6     EB         	XCHG               
3273: F0E7     210F00     	LXI	H,15	;point to number of records for this file.
3274: F0EA     19         	DAD	D              
3275: F0EB     0E11       	MVI	C,17	;and clear all of this space.
3276: F0ED     AF         	XRA	A              
3277: F0EE                GETMT1:             
3278: F0EE     77         	MOV	M,A            
3279: F0EF     23         	INX	H              
3280: F0F0     0D         	DCR	C              
3281: F0F1     C2EEF0     	JNZ	GETMT1         
3282: F0F4     210D00     	LXI	H,13	;clear the 's1' byte also.
3283: F0F7     19         	DAD	D              
3284: F0F8     77         	MOV	M,A            
3285: F0F9     CD95ED     	CALL	CHKNMBR	;keep (FilePosInDirSegment) within bounds.
3286: F0FC     CDA5EF     	CALL	FCBSET	;write out this fcb entry to directory.
3287: F0FF     C381ED     	JMP	SETS2B7	;set 's2' byte bit 7 (unmodified at present).
3288: F102                ;                   
3289: F102                ;   Routine to close the current extent and open the next one
3290: F102                ; for reading.      
3291: F102                ;                   
3292: F102                GETNEXT:            
3293: F102     AF         	XRA	A              
3294: F103     32CAF5     	STA	CLOSEFLG;clear close flag.
3295: F106     CD4AF0     	CALL	CLOSEIT	;close this extent.
3296: F109     CDFEED     	CALL	CheckFilePosition
3297: F10C     C8         	RZ		;not there???  
3298: F10D     2A3CE8     	LHLD	ParamsDE	;get extent byte.
3299: F110     010C00     	LXI	B,12           
3300: F113     09         	DAD	B              
3301: F114     7E         	MOV	A,M	;and increment it.
3302: F115     3C         	INR	A              
3303: F116     E61F       	ANI	1FH	;keep within range 0-31.
3304: F118     77         	MOV	M,A            
3305: F119     CA2BF1     	JZ	GTNEXT1	;overflow?
3306: F11C     47         	MOV	B,A	;mask extent byte.
3307: F11D     3ABDF5     	LDA	EXTMASK        
3308: F120     A0         	ANA	B              
3309: F121     21CAF5     	LXI	H,CLOSEFLG;check close flag (0ffh is ok).
3310: F124     A6         	ANA	M              
3311: F125     CA36F1     	JZ	GTNEXT2	;if zero, we must read in next extent.
3312: F128     C354F1     	JMP	GTNEXT3	;else, it is already in memory.
3313: F12B                GTNEXT1:            
3314: F12B     010200     	LXI	B,2	;Point to the 's2' byte.
3315: F12E     09         	DAD	B              
3316: F12F     34         	INR	M	;and bump it.
3317: F130     7E         	MOV	A,M	;too many extents?
3318: F131     E60F       	ANI	0FH            
3319: F133     CA5EF1     	JZ	GTNEXT5	;yes, set error code.
3320: F136                ;                   
3321: F136                ;   Get here to open the next extent.
3322: F136                ;                   
3323: F136                GTNEXT2:            
3324: F136     0E0F       	MVI	C,15	;set to check first 15 bytes of fcb.
3325: F138     CDBDEE     	CALL	FindFirst	;find the first one.
3326: F13B     CDFEED     	CALL	CheckFilePosition;none available?
3327: F13E     C254F1     	JNZ	GTNEXT3        
3328: F141     3ACBF5     	LDA	RDWRTFLG;no extent present. Can we open an empty one?
3329: F144     3C         	INR	A	;0ffh means reading (so not possible).
3330: F145     CA5EF1     	JZ	GTNEXT5	;or an error.
3331: F148     CDCCF0     	CALL	GETEMPTY;we are writing, get an empty entry.
3332: F14B     CDFEED     	CALL	CheckFilePosition;none?
3333: F14E     CA5EF1     	JZ	GTNEXT5	;error if true.
3334: F151     C357F1     	JMP	GTNEXT4	;else we are almost done.
3335: F154                GTNEXT3:            
3336: F154     CD02F0     	CALL	OPENIT1	;open this extent.
3337: F157                GTNEXT4:            
3338: F157     CDDEEC     	CALL	STRDATA	;move in updated data (rec #, extent #, etc.)
3339: F15A     AF         	XRA	A	;clear status and return.
3340: F15B     C35CEB     	JMP	SetStatusBDOS  
3341: F15E                ;                   
3342: F15E                ;   Error in extending the file. Too many extents were needed
3343: F15E                ; or not enough space on the disk.
3344: F15E                ;                   
3345: F15E                GTNEXT5:            
3346: F15E     CD60EB     	CALL	IOERR1	;set error code, clear bit 7 of 's2'
3347: F161     C381ED     	JMP	SETS2B7	;so this is not written on a close.
3348: F164                ;                   
3349: F164                ;   Read a sequential file.
3350: F164                ;                   
3351: F164                RDSEQ:              
3352: F164     3E01       	MVI	A,1	;set sequential access mode.
3353: F166     32CDF5     	STA	MODE           
3354: F169                RDSEQ1:             
3355: F169     3EFF       	MVI	A,0FFH	;don't allow reading unwritten space.
3356: F16B     32CBF5     	STA	RDWRTFLG       
3357: F16E     CDDEEC     	CALL	STRDATA	;put rec# and ext# into fcb.
3358: F171     3ADAF5     	LDA	SAVNREC	;get next record to read.
3359: F174     21D8F5     	LXI	H,SAVNXT;get number of records in extent.
3360: F177     BE         	CMP	M	;within this extent?
3361: F178     DA8EF1     	JC	RDSEQ2          
3362: F17B     FE80       	CPI	LogicalSecSize	;no. Is this extent fully used?
3363: F17D     C2A3F1     	JNZ	RDSEQ3	;no. End-of-file.
3364: F180     CD02F1     	CALL	GETNEXT	;yes, open the next one.
3365: F183     AF         	XRA	A	;reset next record to read.
3366: F184     32DAF5     	STA	SAVNREC        
3367: F187     3A3FE8     	LDA	StatusBDOSReturn	;check on open, successful?
3368: F18A     B7         	ORA	A              
3369: F18B     C2A3F1     	JNZ	RDSEQ3	;no, error.
3370: F18E                RDSEQ2:             
3371: F18E     CD9AEC     	CALL	COMBLK	;ok. compute block number to read.
3372: F191     CDA7EC     	CALL	CHKBLK	;check it. Within bounds?
3373: F194     CAA3F1     	JZ	RDSEQ3	;no, error.
3374: F197     CDADEC     	CALL	LOGICAL	;convert (BlockNumber) to logical sector (128 byte).
3375: F19A     CDF4EB     	CALL	TrackSectorForBlock	;set the track and sector for this block #.
3376: F19D     CDD5EB     	CALL	DOREAD	;and read it.
3377: F1A0     C3F5EC     	JMP	SETNREC	;and set the next record to be accessed.
3378: F1A3                ;                   
3379: F1A3                ;   Read error occured. Set status and return.
3380: F1A3                ;                   
3381: F1A3                RDSEQ3:             
3382: F1A3     C360EB     	JMP	IOERR1         
3383: F1A6                ;                   
3384: F1A6                ;   Write the next sequential record.
3385: F1A6                ;                   
3386: F1A6                WTSEQ:              
3387: F1A6     3E01       	MVI	A,1	;set sequential access mode.
3388: F1A8     32CDF5     	STA	MODE           
3389: F1AB                WTSEQ1:             
3390: F1AB     3E00       	MVI	A,0	;allow an addition empty extent to be opened.
3391: F1AD     32CBF5     	STA	RDWRTFLG       
3392: F1B0     CD5DED     	CALL	CHKWPRT	;check write protect status.
3393: F1B3     2A3CE8     	LHLD	ParamsDE      
3394: F1B6     CD50ED     	CALL	CKROF1	;check for read only file, (HL) already set to fcb.
3395: F1B9     CDDEEC     	CALL	STRDATA	;put updated data into fcb.
3396: F1BC     3ADAF5     	LDA	SAVNREC	;get record number to write.
3397: F1BF     FE80       	CPI	LogicalSecSize	;within range?
3398: F1C1     D260EB     	JNC	IOERR1	;no, error(?).
3399: F1C4     CD9AEC     	CALL	COMBLK	;compute block number.
3400: F1C7     CDA7EC     	CALL	CHKBLK	;check number.
3401: F1CA     0E00       	MVI	C,0	;is there one to write to?
3402: F1CC     C216F2     	JNZ	WTSEQ6	;yes, go do it.
3403: F1CF     CD61EC     	CALL	GETBLOCK;get next block number within fcb to use.
3404: F1D2     32CEF5     	STA	RELBLOCK;and save.
3405: F1D5     010000     	LXI	B,0	;start looking for space from the start
3406: F1D8     B7         	ORA	A	;if none allocated as yet.
3407: F1D9     CAE3F1     	JZ	WTSEQ2          
3408: F1DC     4F         	MOV	C,A	;extract previous block number from fcb
3409: F1DD     0B         	DCX	B	;so we can be closest to it.
3410: F1DE     CD81EC     	CALL	EXTBLK        
3411: F1E1     44         	MOV	B,H            
3412: F1E2     4D         	MOV	C,L            
3413: F1E3                WTSEQ2:             
3414: F1E3     CD66EF     	CALL	FNDSPACE;find the next empty block nearest number (BC).
3415: F1E6     7D         	MOV	A,L	;check for a zero number.
3416: F1E7     B4         	ORA	H              
3417: F1E8     C2F0F1     	JNZ	WTSEQ3         
3418: F1EB     3E02       	MVI	A,2	;no more space?
3419: F1ED     C35CEB     	JMP	SetStatusBDOS  
3420: F1F0                WTSEQ3:             
3421: F1F0     22DCF5     	SHLD	BlockNumber	;save block number to access.
3422: F1F3     EB         	XCHG		;put block number into (DE).
3423: F1F4     2A3CE8     	LHLD	ParamsDE	;now we must update the fcb for this
3424: F1F7     011000     	LXI	B,16	;newly allocated block.
3425: F1FA     09         	DAD	B              
3426: F1FB     3AD4F5     	LDA	SmallDisk	;8 or 16 bit block numbers?
3427: F1FE     B7         	ORA	A              
3428: F1FF     3ACEF5     	LDA	RELBLOCK	;(* update this entry *)
3429: F202     CA0CF2     	JZ	WTSEQ4	;zero means 16 bit ones.
3430: F205     CD6DED     	CALL	ADDA2HL	;(HL)=(HL)+(A)
3431: F208     73         	MOV	M,E	;store new block number.
3432: F209     C314F2     	JMP	WTSEQ5         
3433: F20C                WTSEQ4:             
3434: F20C     4F         	MOV	C,A	;compute spot in this 16 bit table.
3435: F20D     0600       	MVI	B,0            
3436: F20F     09         	DAD	B              
3437: F210     09         	DAD	B              
3438: F211     73         	MOV	M,E	;stuff block number (DE) there.
3439: F212     23         	INX	H              
3440: F213     72         	MOV	M,D            
3441: F214                WTSEQ5:             
3442: F214     0E02       	MVI	C,2	;set (C) to indicate writing to un-used disk space.
3443: F216                WTSEQ6:             
3444: F216     3A3FE8     	LDA	StatusBDOSReturn	;are we ok so far?
3445: F219     B7         	ORA	A              
3446: F21A     C0         	RNZ                
3447: F21B     C5         	PUSH	B	;yes, save write flag for bios (register C).
3448: F21C     CDADEC     	CALL	LOGICAL	;convert (BlockNumber) over to loical sectors.
3449: F21F     3ACDF5     	LDA	MODE	;get access mode flag (1=sequential,
3450: F222     3D         	DCR	A	;0=random, 2=special?).
3451: F223     3D         	DCR	A              
3452: F224     C263F2     	JNZ	WTSEQ9         
3453: F227                ;                   
3454: F227                ;   Special random i/o from function #40. Maybe for M/PM, but the
3455: F227                ; current block, if it has not been written to, will be zeroed
3456: F227                ; out and then written (reason?).
3457: F227                ;                   
3458: F227     C1         	POP	B              
3459: F228     C5         	PUSH	B             
3460: F229     79         	MOV	A,C	;get write status flag (2=writing unused space).
3461: F22A     3D         	DCR	A              
3462: F22B     3D         	DCR	A              
3463: F22C     C263F2     	JNZ	WTSEQ9         
3464: F22F     E5         	PUSH	H             
3465: F230     2AB1F5     	LHLD	DirBuffAddr	;zero out the directory buffer.
3466: F233     57         	MOV	D,A	;note that (A) is zero here.
3467: F234                WTSEQ7:             
3468: F234     77         	MOV	M,A            
3469: F235     23         	INX	H              
3470: F236     14         	INR	D	;do 128 bytes.
3471: F237     F234F2     	JP	WTSEQ7          
3472: F23A     CDE9ED     	CALL	SetDirDMA	;tell the bios the dma address for directory access.
3473: F23D     2ADEF5     	LHLD	LOGSECT	;get sector that starts current block.
3474: F240     0E02       	MVI	C,2	;set 'writing to unused space' flag.
3475: F242                WTSEQ8:             
3476: F242     22DCF5     	SHLD	BlockNumber	;save sector to write.
3477: F245     C5         	PUSH	B             
3478: F246     CDF4EB     	CALL	TrackSectorForBlock	;determine its track and sector numbers.
3479: F249     C1         	POP	B              
3480: F24A     CDDBEB     	CALL	DOWRITE	;now write out 128 bytes of zeros.
3481: F24D     2ADCF5     	LHLD	BlockNumber	;get sector number.
3482: F250     0E00       	MVI	C,0	;set normal write flag.
3483: F252     3ABCF5     	LDA	BLKMASK	;determine if we have written the entire
3484: F255     47         	MOV	B,A	;physical block.
3485: F256     A5         	ANA	L              
3486: F257     B8         	CMP	B              
3487: F258     23         	INX	H	;prepare for the next one.
3488: F259     C242F2     	JNZ	WTSEQ8	;continue until (BLKMASK+1) sectors written.
3489: F25C     E1         	POP	H	;reset next sector number.
3490: F25D     22DCF5     	SHLD	BlockNumber   
3491: F260     CDE3ED     	CALL	Set2UsersDMA	;and reset dma address.
3492: F263                ;                   
3493: F263                ;   Normal disk write. Set the desired track and sector then
3494: F263                ; do the actual write.
3495: F263                ;                   
3496: F263                WTSEQ9:             
3497: F263     CDF4EB     	CALL	TrackSectorForBlock	;determine track and sector for this write.
3498: F266     C1         	POP	B	;get write status flag.
3499: F267     C5         	PUSH	B             
3500: F268     CDDBEB     	CALL	DOWRITE	;and write this out.
3501: F26B     C1         	POP	B              
3502: F26C     3ADAF5     	LDA	SAVNREC	;get number of records in file.
3503: F26F     21D8F5     	LXI	H,SAVNXT;get last record written.
3504: F272     BE         	CMP	M              
3505: F273     DA7AF2     	JC	WTSEQ10         
3506: F276     77         	MOV	M,A	;we have to update record count.
3507: F277     34         	INR	M              
3508: F278     0E02       	MVI	C,2            
3509: F27A                ;                   
3510: F27A                ;*   This area has been patched to correct disk update problem
3511: F27A                ;* when using blocking and de-blocking in the BIOS.
3512: F27A                ;                   
3513: F27A                WTSEQ10:            
3514: F27A     00         	NOP		;was 'dcr c'  
3515: F27B     00         	NOP		;was 'dcr c'  
3516: F27C     210000     	LXI	H,0	;was 'jnz wtseq99'
3517: F27F                ;                   
3518: F27F                ; *   End of patch. 
3519: F27F                ;                   
3520: F27F     F5         	PUSH	PSW           
3521: F280     CD72ED     	CALL	GETS2	;set 'extent written to' flag.
3522: F283     E67F       	ANI	7FH	;(* clear bit 7 *)
3523: F285     77         	MOV	M,A            
3524: F286     F1         	POP	PSW	;get record count for this extent.
3525: F287                WTSEQ99:            
3526: F287     FE7F       	CPI	127	;is it full?
3527: F289     C2A8F2     	JNZ	WTSEQ12        
3528: F28C     3ACDF5     	LDA	MODE	;yes, are we in sequential mode?
3529: F28F     FE01       	CPI	1              
3530: F291     C2A8F2     	JNZ	WTSEQ12        
3531: F294     CDF5EC     	CALL	SETNREC	;yes, set next record number.
3532: F297     CD02F1     	CALL	GETNEXT	;and get next empty space in directory.
3533: F29A     213FE8     	LXI	H,StatusBDOSReturn;ok?
3534: F29D     7E         	MOV	A,M            
3535: F29E     B7         	ORA	A              
3536: F29F     C2A6F2     	JNZ	WTSEQ11        
3537: F2A2     3D         	DCR	A	;yes, set record count to -1.
3538: F2A3     32DAF5     	STA	SAVNREC        
3539: F2A6                WTSEQ11:            
3540: F2A6     3600       	MVI	M,0	;clear status.
3541: F2A8                WTSEQ12:            
3542: F2A8     C3F5EC     	JMP	SETNREC	;set next record to access.
3543: F2AB                ;                   
3544: F2AB                ;   For random i/o, set the fcb for the desired record number
3545: F2AB                ; based on the 'r0,r1,r2' bytes. These bytes in the fcb are
3546: F2AB                ; used as follows:  
3547: F2AB                ;                   
3548: F2AB                ;       fcb+35            fcb+34            fcb+33
3549: F2AB                ;  |     'r-2'      |      'r-1'      |      'r-0'     |
3550: F2AB                ;  |7             0 | 7             0 | 7             0|
3551: F2AB                ;  |0 0 0 0 0 0 0 0 | 0 0 0 0 0 0 0 0 | 0 0 0 0 0 0 0 0|
3552: F2AB                ;  |    overflow   | | extra |  extent   |   record #  |
3553: F2AB                ;  | ______________| |_extent|__number___|_____________|
3554: F2AB                ;                     also 's2'
3555: F2AB                ;                   
3556: F2AB                ;   On entry, register (C) contains 0ffh if this is a read
3557: F2AB                ; and thus we can not access unwritten disk space. Otherwise,
3558: F2AB                ; another extent will be opened (for writing) if required.
3559: F2AB                ;                   
3560: F2AB                POSITION:           
3561: F2AB     AF         	XRA	A	;set random i/o flag.
3562: F2AC     32CDF5     	STA	MODE           
3563: F2AF                ;                   
3564: F2AF                ;   Special entry (function #40). M/PM ?
3565: F2AF                ;                   
3566: F2AF                POSITN1:            
3567: F2AF     C5         	PUSH	B	;save read/write flag.
3568: F2B0     2A3CE8     	LHLD	ParamsDE	;get address of fcb.
3569: F2B3     EB         	XCHG               
3570: F2B4     212100     	LXI	H,33	;now get byte 'r0'.
3571: F2B7     19         	DAD	D              
3572: F2B8     7E         	MOV	A,M            
3573: F2B9     E67F       	ANI	7FH	;keep bits 0-6 for the record number to access.
3574: F2BB     F5         	PUSH	PSW           
3575: F2BC     7E         	MOV	A,M	;now get bit 7 of 'r0' and bits 0-3 of 'r1'.
3576: F2BD     17         	RAL                
3577: F2BE     23         	INX	H              
3578: F2BF     7E         	MOV	A,M            
3579: F2C0     17         	RAL                
3580: F2C1     E61F       	ANI	1FH	;and save this in bits 0-4 of (C).
3581: F2C3     4F         	MOV	C,A	;this is the extent byte.
3582: F2C4     7E         	MOV	A,M	;now get the extra extent byte.
3583: F2C5     1F         	RAR                
3584: F2C6     1F         	RAR                
3585: F2C7     1F         	RAR                
3586: F2C8     1F         	RAR                
3587: F2C9     E60F       	ANI	0FH            
3588: F2CB     47         	MOV	B,A	;and save it in (B).
3589: F2CC     F1         	POP	PSW	;get record number back to (A).
3590: F2CD     23         	INX	H	;check overflow byte 'r2'.
3591: F2CE     6E         	MOV	L,M            
3592: F2CF     2C         	INR	L              
3593: F2D0     2D         	DCR	L              
3594: F2D1     2E06       	MVI	L,6	;prepare for error.
3595: F2D3     C233F3     	JNZ	POSITN5	;out of disk space error.
3596: F2D6     212000     	LXI	H,32	;store record number into fcb.
3597: F2D9     19         	DAD	D              
3598: F2DA     77         	MOV	M,A            
3599: F2DB     210C00     	LXI	H,12	;and now check the extent byte.
3600: F2DE     19         	DAD	D              
3601: F2DF     79         	MOV	A,C            
3602: F2E0     96         	SUB	M	;same extent as before?
3603: F2E1     C2EFF2     	JNZ	POSITN2        
3604: F2E4     210E00     	LXI	H,14	;yes, check extra extent byte 's2' also.
3605: F2E7     19         	DAD	D              
3606: F2E8     78         	MOV	A,B            
3607: F2E9     96         	SUB	M              
3608: F2EA     E67F       	ANI	7FH            
3609: F2EC     CA27F3     	JZ	POSITN3;same, we are almost done then.
3610: F2EF                ;                   
3611: F2EF                ;  Get here when another extent is required.
3612: F2EF                ;                   
3613: F2EF                POSITN2:            
3614: F2EF     C5         	PUSH	B             
3615: F2F0     D5         	PUSH	D             
3616: F2F1     CD4AF0     	CALL	CLOSEIT	;close current extent.
3617: F2F4     D1         	POP	D              
3618: F2F5     C1         	POP	B              
3619: F2F6     2E03       	MVI	L,3	;prepare for error.
3620: F2F8     3A3FE8     	LDA	StatusBDOSReturn
3621: F2FB     3C         	INR	A              
3622: F2FC     CA2CF3     	JZ	POSITN4	;close error.
3623: F2FF     210C00     	LXI	H,12	;put desired extent into fcb now.
3624: F302     19         	DAD	D              
3625: F303     71         	MOV	M,C            
3626: F304     210E00     	LXI	H,14	;and store extra extent byte 's2'.
3627: F307     19         	DAD	D              
3628: F308     70         	MOV	M,B            
3629: F309     CDF9EF     	CALL	OPENIT	;try and get this extent.
3630: F30C     3A3FE8     	LDA	StatusBDOSReturn	;was it there?
3631: F30F     3C         	INR	A              
3632: F310     C227F3     	JNZ	POSITN3        
3633: F313     C1         	POP	B	;no. can we create a new one (writing?).
3634: F314     C5         	PUSH	B             
3635: F315     2E04       	MVI	L,4	;prepare for error.
3636: F317     0C         	INR	C              
3637: F318     CA2CF3     	JZ	POSITN4	;nope, reading unwritten space error.
3638: F31B     CDCCF0     	CALL	GETEMPTY;yes we can, try to find space.
3639: F31E     2E05       	MVI	L,5	;prepare for error.
3640: F320     3A3FE8     	LDA	StatusBDOSReturn
3641: F323     3C         	INR	A              
3642: F324     CA2CF3     	JZ	POSITN4	;out of space?
3643: F327                ;                   
3644: F327                ;   Normal return location. Clear error code and return.
3645: F327                ;                   
3646: F327                POSITN3:            
3647: F327     C1         	POP	B	;restore stack.
3648: F328     AF         	XRA	A	;and clear error code byte.
3649: F329     C35CEB     	JMP	SetStatusBDOS  
3650: F32C                ;                   
3651: F32C                ;   Error. Set the 's2' byte to indicate this (why?).
3652: F32C                ;                   
3653: F32C                POSITN4:            
3654: F32C     E5         	PUSH	H             
3655: F32D     CD72ED     	CALL	GETS2         
3656: F330     36C0       	MVI	M,0C0H         
3657: F332     E1         	POP	H              
3658: F333                ;                   
3659: F333                ;   Return with error code (presently in L).
3660: F333                ;                   
3661: F333                POSITN5:            
3662: F333     C1         	POP	B              
3663: F334     7D         	MOV	A,L	;get error code.
3664: F335     323FE8     	STA	StatusBDOSReturn
3665: F338     C381ED     	JMP	SETS2B7        
3666: F33B                ;                   
3667: F33B                ;   Read a random record.
3668: F33B                ;                   
3669: F33B                READRAN:            
3670: F33B     0EFF       	MVI	C,0FFH	;set 'read' status.
3671: F33D     CDABF2     	CALL	POSITION;position the file to proper record.
3672: F340     CC69F1     	CZ	RDSEQ1	;and read it as usual (if no errors).
3673: F343     C9         	RET                
3674: F344                ;                   
3675: F344                ;   Write to a random record.
3676: F344                ;                   
3677: F344                WRITERAN:           
3678: F344     0E00       	MVI	C,0	;set 'writing' flag.
3679: F346     CDABF2     	CALL	POSITION;position the file to proper record.
3680: F349     CCABF1     	CZ	WTSEQ1	;and write as usual (if no errors).
3681: F34C     C9         	RET                
3682: F34D                ;                   
3683: F34D                ;   Compute the random record number. Enter with (HL) pointing
3684: F34D                ; to a fcb an (DE) contains a relative location of a record
3685: F34D                ; number. On exit, (C) contains the 'r0' byte, (B) the 'r1'
3686: F34D                ; byte, and (A) the 'r2' byte.
3687: F34D                ;                   
3688: F34D                ;   On return, the zero flag is set if the record is within
3689: F34D                ; bounds. Otherwise, an overflow occured.
3690: F34D                ;                   
3691: F34D                COMPRAND:           
3692: F34D     EB         	XCHG		;save fcb pointer in (DE).
3693: F34E     19         	DAD	D	;compute relative position of record #.
3694: F34F     4E         	MOV	C,M	;get record number into (BC).
3695: F350     0600       	MVI	B,0            
3696: F352     210C00     	LXI	H,12	;now get extent.
3697: F355     19         	DAD	D              
3698: F356     7E         	MOV	A,M	;compute (BC)=(record #)+(extent)*128.
3699: F357     0F         	RRC		;move lower bit into bit 7.
3700: F358     E680       	ANI	80H	;and ignore all other bits.
3701: F35A     81         	ADD	C	;add to our record number.
3702: F35B     4F         	MOV	C,A            
3703: F35C     3E00       	MVI	A,0	;take care of any carry.
3704: F35E     88         	ADC	B              
3705: F35F     47         	MOV	B,A            
3706: F360     7E         	MOV	A,M	;now get the upper bits of extent into
3707: F361     0F         	RRC		;bit positions 0-3.
3708: F362     E60F       	ANI	0FH	;and ignore all others.
3709: F364     80         	ADD	B	;add this in to 'r1' byte.
3710: F365     47         	MOV	B,A            
3711: F366     210E00     	LXI	H,14	;get the 's2' byte (extra extent).
3712: F369     19         	DAD	D              
3713: F36A     7E         	MOV	A,M            
3714: F36B     87         	ADD	A	;and shift it left 4 bits (bits 4-7).
3715: F36C     87         	ADD	A              
3716: F36D     87         	ADD	A              
3717: F36E     87         	ADD	A              
3718: F36F     F5         	PUSH	PSW	;save carry flag (bit 0 of flag byte).
3719: F370     80         	ADD	B	;now add extra extent into 'r1'.
3720: F371     47         	MOV	B,A            
3721: F372     F5         	PUSH	PSW	;and save carry (overflow byte 'r2').
3722: F373     E1         	POP	H	;bit 0 of (L) is the overflow indicator.
3723: F374     7D         	MOV	A,L            
3724: F375     E1         	POP	H	;and same for first carry flag.
3725: F376     B5         	ORA	L	;either one of these set?
3726: F377     E601       	ANI	01H	;only check the carry flags.
3727: F379     C9         	RET                
3728: F37A                ;                   
3729: F37A                ;   Routine to setup the fcb (bytes 'r0', 'r1', 'r2') to
3730: F37A                ; reflect the last record used for a random (or other) file.
3731: F37A                ; This reads the directory and looks at all extents computing
3732: F37A                ; the largerst record number for each and keeping the maximum
3733: F37A                ; value only. Then 'r0', 'r1', and 'r2' will reflect this
3734: F37A                ; maximum record number. This is used to compute the space used
3735: F37A                ; by a random file. 
3736: F37A                ;                   
3737: F37A                RANSIZE:            
3738: F37A     0E0C       	MVI	C,12	;look thru directory for first entry with
3739: F37C     CDBDEE     	CALL	FindFirst	;this name.
3740: F37F     2A3CE8     	LHLD	ParamsDE	;zero out the 'r0, r1, r2' bytes.
3741: F382     112100     	LXI	D,33           
3742: F385     19         	DAD	D              
3743: F386     E5         	PUSH	H             
3744: F387     72         	MOV	M,D	;note that (D)=0.
3745: F388     23         	INX	H              
3746: F389     72         	MOV	M,D            
3747: F38A     23         	INX	H              
3748: F38B     72         	MOV	M,D            
3749: F38C                RANSIZ1:            
3750: F38C     CDFEED     	CALL	CheckFilePosition;is there an extent to process?
3751: F38F     CAB4F3     	JZ	RANSIZ3	;no, we are done.
3752: F392     CD67ED     	CALL	FCB2HL	;set (HL) pointing to proper fcb in dir.
3753: F395     110F00     	LXI	D,15	;point to last record in extent.
3754: F398     CD4DF3     	CALL	COMPRAND;and compute random parameters.
3755: F39B     E1         	POP	H              
3756: F39C     E5         	PUSH	H	;now check these values against those
3757: F39D     5F         	MOV	E,A	;already in fcb.
3758: F39E     79         	MOV	A,C	;the carry flag will be set if those
3759: F39F     96         	SUB	M	;in the fcb represent a larger size than
3760: F3A0     23         	INX	H	;this extent does.
3761: F3A1     78         	MOV	A,B            
3762: F3A2     9E         	SBB	M              
3763: F3A3     23         	INX	H              
3764: F3A4     7B         	MOV	A,E            
3765: F3A5     9E         	SBB	M              
3766: F3A6     DAAEF3     	JC	RANSIZ2         
3767: F3A9     73         	MOV	M,E	;we found a larger (in size) extent.
3768: F3AA     2B         	DCX	H	;stuff these values into fcb.
3769: F3AB     70         	MOV	M,B            
3770: F3AC     2B         	DCX	H              
3771: F3AD     71         	MOV	M,C            
3772: F3AE                RANSIZ2:            
3773: F3AE     CDD2EE     	CALL	FINDNXT	;now get the next extent.
3774: F3B1     C38CF3     	JMP	RANSIZ1	;continue til all done.
3775: F3B4                RANSIZ3:            
3776: F3B4     E1         	POP	H	;we are done, restore the stack and
3777: F3B5     C9         	RET		;return.      
3778: F3B6                ;                   
3779: F3B6                ;   Function to return the random record position of a given
3780: F3B6                ; file which has been read in sequential mode up to now.
3781: F3B6                ;                   
3782: F3B6                fcSetRecordNumber:  
3783: F3B6     2A3CE8     	LHLD	ParamsDE	;point to fcb.
3784: F3B9     112000     	LXI	D,32	;and to last used record.
3785: F3BC     CD4DF3     	CALL	COMPRAND;compute random position.
3786: F3BF     212100     	LXI	H,33	;now stuff these values into fcb.
3787: F3C2     19         	DAD	D              
3788: F3C3     71         	MOV	M,C	;move 'r0'.
3789: F3C4     23         	INX	H              
3790: F3C5     70         	MOV	M,B	;and 'r1'. 
3791: F3C6     23         	INX	H              
3792: F3C7     77         	MOV	M,A	;and lastly 'r2'.
3793: F3C8     C9         	RET                
3794: F3C9                ;                   
3795: F3C9                ; This routine selects the drive specified in (CurrentDrive) and
3796: F3C9                ; updates the login vector and bitmap table if this drive was
3797: F3C9                ; not already active.
3798: F3C9                ;                   
3799: F3C9                LoginDrive:         
3800: F3C9     3AA2F5     	LDA		CurrentDrive		; get the Current Drive.
3801: F3CC     4F         	MOV		C,A					; Save current drive for later
3802: F3CD     2AA7F5     	LHLD	LoggedBitMap		; point at the "logged In" Bitmap.
3803: F3D0     CD0DED     	CALL	HLrightC			; Return with CurrentDrive's bit in L's lsb (byte 0)
3804: F3D3     E5         	PUSH	H					; Save it, so we will know if it is already active
3805: F3D4     EB         	XCHG               
3806: F3D5     CD7CEB     	CALL	SelectDisk			; select this drive to set up Disk Parameter Block.
3807: F3D8     CA6AEB     	JZ		SLCTERR				; If not valid then error exit outta here
3808: F3DB     E1         	POP	H						; retreive original state of the drive
3809: F3DC     7D         	MOV	A,L						; and put it into (A) 
3810: F3DD     1F         	RAR							; move bit 0 into the carry flag if it is set		
3811: F3DE     D8         	RC							; then return, because this drive has already been activated
3812: F3DF                				;Else  update the logged Bitmap to reflect this drive.
3813: F3DF     2AA7F5     	LHLD	LoggedBitMap		
3814: F3E2     4D         	MOV		C,L           
3815: F3E3     44         	MOV		B,H					; put the map into (BC)
3816: F3E4     CD4BF4     	CALL	SetBit				; Set it in the LoggedBitMap
3817: F3E7     22A7F5     	SHLD	LoggedBitMap		; and save the Bit map.
3818: F3EA                ;	JMP	BITMAP	;now update the bitmap.
3819: F3EA                ;-----------------------------------------------------------
3820: F3EA                ;                   
3821: F3EA                ;   Construct the FAT for the active
3822: F3EA                ; drive. If a file name starts with '$' and it is under the
3823: F3EA                ; current user number, then (StatusBDOSReturn) is set to minus 1. Otherwise
3824: F3EA                ; it is not set at all.
3825: F3EA                ;                   
3826: F3EA                BITMAP:             
3827: F3EA                								; compute size of allocation table. 1 bit for block,
3828: F3EA                								; 1 byte for 8 blocks, so size of FAT is:
3829: F3EA                								; DiskSize/8.
3830: F3EA     2ABEF5     	LHLD		DiskSize		; get maximum  Allocation Block number
3831: F3ED     0E03       	MVI			C,3				; 2 raised to 3rd power = 8
3832: F3EF     CD0DED     	CALL		HLrightC		;(HL)=(HL)/8.
3833: F3F2     23         	INX			H				;at lease 1 byte.
3834: F3F3     44         	MOV			B,H          
3835: F3F4     4D         	MOV			C,L				;set (BC) to the allocation table length.
3836: F3F5                ;                   
3837: F3F5                ;   Initialize the bitmap for this drive. Right now, the first
3838: F3F5                ; two bytes are specified by the disk parameter block. However
3839: F3F5                ; a patch could be entered here if it were necessary to setup
3840: F3F5                ; this table in a special mannor. For example, the bios could
3841: F3F5                ; determine locations of 'bad blocks' and set them as already
3842: F3F5                ; 'used' in the map.
3843: F3F5                ;                   
3844: F3F5     2AB7F5     	LHLD		FATpointer			;now zero out the File Allocation Table
3845: F3F8                BITMAP1:            
3846: F3F8     3600       	MVI			M,0					; put zero in vector
3847: F3FA     23         	INX			H					; point at next location
3848: F3FB     0B         	DCX			B					; count down
3849: F3FC     78         	MOV			A,B          
3850: F3FD     B1         	ORA			C					; equals zero if both (B) and (B) are Zero
3851: F3FE     C2F8F3     	JNZ			BITMAP1				; loop for more
3852: F401                					; allocation vector is now cleared
3853: F401     2AC2F5     	LHLD		DirectoryFAT0		; Point at initial space used by directory.
3854: F404     EB         	XCHG							; pre allocate the space, first 2 bits (0C000H)
3855: F405     2AB7F5     	LHLD		FATpointer			; and put this into map.
3856: F408     73         	MOV			M,E          
3857: F409     23         	INX			H            
3858: F40A     72         	MOV			M,D          
3859: F40B                ;                   
3860: F40B                ;   End of initialization portion.
3861: F40B                ;                   
3862: F40B     CDC4EB     	CALL		HomeDrive			; now home the drive, H=0,T=0,S=0
3863: F40E     2AABF5     	LHLD		FilePosInDirSegment
3864: F411     3603       	MVI			M,3					; force next directory request to read
3865: F413     23         	INX			H					; in a sector.
3866: F414     3600       	MVI			M,0          
3867: F416                	                   
3868: F416     CD07EE     	CALL		InitializeFilePosition	;clear initial file position also.
3869: F419                BITMAP2:            
3870: F419     0EFF       	MVI		C,0FFH				; Read next file name in directory
3871: F41B     CD0EEE     	CALL	GetNextEntry		; And set checksum byte.
3872: F41E                	                   
3873: F41E     CDFEED     	CALL	CheckFilePosition	; Is there another file?
3874: F421     C8         	RZ						; NO - return
3875: F422                	                   
3876: F422     CD67ED     	CALL	FCB2HL				; YES, get its address.
3877: F425     3EE5       	MVI		A,EmptyFileFlag
3878: F427     BE         	CMP		M					; Is it an empty file entry?
3879: F428     CA19F4     	JZ		BITMAP2				; YES - Go back for next entry
3880: F42B                	                   
3881: F42B     3AA1F5     	LDA		CurrentUser			; NO, Do we have the correct user number?
3882: F42E     BE         	CMP		M             
3883: F42F     C23DF4     	JNZ		BITMAP3				; NO -			
3884: F432     23         	INX		H					; YES -skip to first character in file name
3885: F433     7E         	MOV		A,M					; Does name start with a '$'?
3886: F434     D624       	SUI		DOLLAR				; Clear acc(if =) and test for equality at the same time
3887: F436     C23DF4     	JNZ		BITMAP3       
3888: F439     3D         	DCR		A					; Yes, set atatus to minus one.
3889: F43A     323FE8     	STA		StatusBDOSReturn	; set return status
3890: F43D                BITMAP3:            
3891: F43D                ;	MVI		C,1					;now set this file's space as used in bit map.
3892: F43D     3E01       	MVI		A,01H				; want to set the bit
3893: F43F     32A3F5     	STA		BitSetFlag			; Flag = 01, set the bit
3894: F442     CD71EE     	CALL	SetClearFATbits
3895: F445     CD95ED     	CALL	CHKNMBR				;keep (FilePosInDirSegment) in bounds.
3896: F448     C319F4     	JMP	BITMAP2        
3897: F44B                ;-----------------------------------------------------------
3898: F44B                ;                   
3899: F44B                ;  Routine to set a bit in a 16 bit value contained in (BC).
3900: F44B                ; The bit set depends on the current drive selection.
3901: F44B                ;                   
3902: F44B                SetBit:             
3903: F44B     3AA2F5     	LDA		CurrentDrive		; get active drive, a = 00, b = 02, c= 02, d = 03
3904: F44E     210100     	LXI		H,1					; Need a bit to move
3905: F451     3C         	INR		A					; Ensure at lest 1 test
3906: F452                SetBit1:            
3907: F452     3D         	DCR		A             
3908: F453     CA5AF4     	JZ		SetBit2				; a = 01, b = 02, c= 04, d = 08
3909: F456     29         	DAD		H             
3910: F457     C352F4     	JMP		SetBit1       
3911: F45A                SetBit2:	           
3912: F45A     79         	MOV		A,C					; or result with BC
3913: F45B     B5         	ORA		L             
3914: F45C     6F         	MOV		L,A					;low byte done, do high byte.
3915: F45D     78         	MOV		A,B           
3916: F45E     B4         	ORA		H             
3917: F45F     67         	MOV		H,A           
3918: F460     C9         	RET							; HL has the result
3919: F461                                    
3920: F461                ;                   
3921: F461                ;   Function to set the active disk number.
3922: F461                ;                   
3923: F461                fcSelectDisk:       
3924: F461     3A3EE8     	LDA	ParamE				;get parameter passed and see if this
3925: F464     21A2F5     	LXI	H,CurrentDrive		;represents a change in drives.
3926: F467     BE         	CMP	M              
3927: F468     C8         	RZ						; return the drive is already selected
3928: F469     77         	MOV	M,A					; It is a change in drives, so log it in.
3929: F46A     C3C9F3     	JMP	LoginDrive     
3930: F46D                ;                   
3931: F46D                ;   This is the 'auto disk select' routine. The firsst byte
3932: F46D                ; of the fcb is examined for a drive specification. If non
3933: F46D                ; zero then the drive will be selected and loged in.
3934: F46D                ;                   
3935: F46D                AUTOSEL:            
3936: F46D     3EFF       	MVI		A,0FFH			;say 'auto-select activated'.
3937: F46F     32D5F5     	STA		AutoSelectActive
3938: F472     2A3CE8     	LHLD	ParamsDE		;get drive specified.
3939: F475     7E         	MOV		A,M           
3940: F476     E61F       	ANI		1FH				;look at lower 5 bits.
3941: F478     3D         	DCR		A				;adjust for (1=A, 2=B) etc.
3942: F479     323EE8     	STA		ParamE			;and save for the select routine.
3943: F47C     FE1E       	CPI		1EH				;check for 'no change' condition.
3944: F47E     D291F4     	JNC		AUTOSL1			;yes, don't change.
3945: F481     3AA2F5     	LDA		CurrentDrive	;we must change, save currently active
3946: F484     32D6F5     	STA		OLDDRV			;drive.
3947: F487     7E         	MOV		A,M				;and save first byte of fcb also.
3948: F488     32D7F5     	STA		AutoSelectFlag	;this must be non-zero.
3949: F48B     E6E0       	ANI		0E0H			;whats this for (bits 6,7 are used for
3950: F48D     77         	MOV		M,A				;something)?
3951: F48E     CD61F4     	CALL	fcSelectDisk			;select and log in this drive.
3952: F491                AUTOSL1:            
3953: F491     3AA1F5     	LDA		CurrentUser		;move user number into fcb.
3954: F494     2A3CE8     	LHLD	ParamsDE		;(* upper half of first byte *)
3955: F497     B6         	ORA		M             
3956: F498     77         	MOV		M,A           
3957: F499     C9         	RET		;and return (all done).
3958: F49A                ;                   
3959: F49A                ;   Function to return the current cp/m version number.
3960: F49A                ;                   
3961: F49A                fcGetVersion:       
3962: F49A     3E22       	MVI	A,022h	;version 2.2
3963: F49C     C35CEB     	JMP	SetStatusBDOS  
3964: F49F                ;                   
3965: F49F                ;   Function (0D) to reset the disk system.
3966: F49F                ;                   
3967: F49F                fcResetDiskSystem:  
3968: F49F     210000     	LXI		H,0				; clear write protect status and log
3969: F4A2     22A5F5     	SHLD	ROBitMap		; clear all Read Only Bits
3970: F4A5     22A7F5     	SHLD	LoggedBitMap	; clear all logged in drives
3971: F4A8     AF         	XRA		A             
3972: F4A9     32A2F5     	STA		CurrentDrive	;select drive 'A'.
3973: F4AC     218000     	LXI		H,Pg0Buffer		;setup default dma address.
3974: F4AF     22A9F5     	SHLD	UsersDMA      
3975: F4B2     CDE3ED     	CALL	Set2UsersDMA	; Call BIOS to set DMA
3976: F4B5     C3C9F3     	JMP		LoginDrive		;now log in drive 'A'.
3977: F4B8                ;                   
3978: F4B8                ;   Function to open a specified file.
3979: F4B8                ;                   
3980: F4B8                fcOpenFile:         
3981: F4B8     CD7BED     	CALL	CLEARS2	;clear 's2' byte.
3982: F4BB     CD6DF4     	CALL	AUTOSEL	;select proper disk.
3983: F4BE     C3F9EF     	JMP	OPENIT	;and open the file.
3984: F4C1                ;                   
3985: F4C1                ;   Function to close a specified file.
3986: F4C1                ;                   
3987: F4C1                fcCloseFile:        
3988: F4C1     CD6DF4     	CALL	AUTOSEL	;select proper disk.
3989: F4C4     C34AF0     	JMP	CLOSEIT	;and close the file.
3990: F4C7                ;                   
3991: F4C7                ;   Function to return the first occurence of a specified file
3992: F4C7                ; name. If the first byte of the fcb is '?' then the name will
3993: F4C7                ; not be checked (get the first entry no matter what).
3994: F4C7                ;                   
3995: F4C7                fcSearchForFirst:   
3996: F4C7     0E00       	MVI	C,0	;prepare for special search.
3997: F4C9     EB         	XCHG               
3998: F4CA     7E         	MOV	A,M	;is first byte a '?'?
3999: F4CB     FE3F       	CPI	QMARK		;'?'    
4000: F4CD     CADEF4     	JZ	fcSearchForFirst1	;yes, just get very first entry (zero length match).
4001: F4D0     CDC9EC     	CALL	SETEXT	;get the extension byte from fcb.
4002: F4D3     7E         	MOV	A,M	;is it '?'? if yes, then we want
4003: F4D4     FE3F       	CPI	QMARK		; '?'	;an entry with a specific 's2' byte.
4004: F4D6     C47BED     	CNZ	CLEARS2	;otherwise, look for a zero 's2' byte.
4005: F4D9     CD6DF4     	CALL	AUTOSEL	;select proper drive.
4006: F4DC     0E0F       	MVI	C,15	;compare bytes 0-14 in fcb (12&13 excluded).
4007: F4DE                fcSearchForFirst1:  
4008: F4DE     CDBDEE     	CALL	FindFirst	;find an entry and then move it into
4009: F4E1     C3F2ED     	JMP	MOVEDIR	;the users dma space.
4010: F4E4                ;                   
4011: F4E4                ;   Function to return the next occurence of a file name.
4012: F4E4                ;                   
4013: F4E4                fcSearchForNext:    
4014: F4E4     2AD0F5     	LHLD	SaveFCB	;restore pointers. note that no
4015: F4E7     223CE8     	SHLD	ParamsDE	;other dbos calls are allowed.
4016: F4EA     CD6DF4     	CALL	AUTOSEL	;no error will be returned, but the
4017: F4ED     CDD2EE     	CALL	FINDNXT	;results will be wrong.
4018: F4F0     C3F2ED     	JMP	MOVEDIR        
4019: F4F3                ;                   
4020: F4F3                ;   Function to delete a file by name.
4021: F4F3                ;                   
4022: F4F3                fcDeleteFile:       
4023: F4F3     CD6DF4     	CALL	AUTOSEL		;select proper drive.
4024: F4F6     CD41EF     	CALL	ERAFILE		;erase the file.
4025: F4F9     C3A6EE     	JMP		STSTATUS	;set status and return.
4026: F4FC                ;                   
4027: F4FC                ;   Function to execute a sequential read of the specified
4028: F4FC                ; record number.    
4029: F4FC                ;                   
4030: F4FC                fcReadSequential:   
4031: F4FC     CD6DF4     	CALL	AUTOSEL	;select proper drive then read.
4032: F4FF     C364F1     	JMP	RDSEQ          
4033: F502                ;                   
4034: F502                ;   Function to write the net sequential record.
4035: F502                ;                   
4036: F502                fcWriteSequential:  
4037: F502     CD6DF4     	CALL	AUTOSEL	;select proper drive then write.
4038: F505     C3A6F1     	JMP	WTSEQ          
4039: F508                ;                   
4040: F508                ;   Create a file function.
4041: F508                ;                   
4042: F508                fcCreateFile:       
4043: F508     CD7BED     	CALL	CLEARS2	;clear the 's2' byte ( extents counter hi byte).
4044: F50B     CD6DF4     	CALL	AUTOSEL	;select proper drive and get the next
4045: F50E     C3CCF0     	JMP		GETEMPTY;empty directory space.
4046: F511                ;                   
4047: F511                ;   Function to rename a file.
4048: F511                ;                   
4049: F511                fcRenameFile:       
4050: F511     CD6DF4     	CALL	AUTOSEL	;select proper drive and then switch
4051: F514     CDBEEF     	CALL	CHGNAMES;file names.
4052: F517     C3A6EE     	JMP	STSTATUS       
4053: F51A                ;                   
4054: F51A                ;   Function to return the logged in Bit map.
4055: F51A                ;                   
4056: F51A                fcGetActiveDisks:   
4057: F51A     2AA7F5     	LHLD	LoggedBitMap  
4058: F51D     C345F5     	JMP	GETPRM1        
4059: F520                ;                   
4060: F520                ;   Function to return the current disk assignment.
4061: F520                ;                   
4062: F520                fcGetCurrentDisk:   
4063: F520     3AA2F5     	LDA	CurrentDrive   
4064: F523     C35CEB     	JMP	SetStatusBDOS  
4065: F526                ;                   
4066: F526                ;   Function to set the dma address.
4067: F526                ;                   
4068: F526                fcSetDMA:           
4069: F526     EB         	XCHG               
4070: F527     22A9F5     	SHLD	UsersDMA	;save in our space and then get to
4071: F52A     C3E3ED     	JMP	Set2UsersDMA	;the bios with this also.
4072: F52D                ;                   
4073: F52D                ;   Function to return the allocation vector.
4074: F52D                ;                   
4075: F52D                fcGetFATtable:      
4076: F52D     2AB7F5     	LHLD	FATpointer    
4077: F530     C345F5     	JMP	GETPRM1        
4078: F533                ;                   
4079: F533                ;   Function to return the read-only status vector.
4080: F533                ;                   
4081: F533                fcGetROdisks:       
4082: F533     2AA5F5     	LHLD	ROBitMap      
4083: F536     C345F5     	JMP	GETPRM1        
4084: F539                ;                   
4085: F539                ;   Function to set the file attributes (read-only, system).
4086: F539                ;                   
4087: F539                fcSetFileAttributes:
4088: F539     CD6DF4     	CALL	AUTOSEL	;select proper drive then save attributes.
4089: F53C     CDE3EF     	CALL	SAVEATTR      
4090: F53F     C3A6EE     	JMP	STSTATUS       
4091: F542                ;                   
4092: F542                ;   Function to return the address of the disk parameter block
4093: F542                ; for the current drive.
4094: F542                ;                   
4095: F542                fcGetDPB:           
4096: F542     2AB3F5     	LHLD	DiskParamBlock
4097: F545                GETPRM1:            
4098: F545     223FE8     	SHLD	StatusBDOSReturn
4099: F548     C9         	RET                
4100: F549                ;                   
4101: F549                ;   Function to get or set the user number. If (E) was (FF)
4102: F549                ; then this is a request to return the current user number.
4103: F549                ; Else set the user number from (E).
4104: F549                ;                   
4105: F549                fcGetUser:          
4106: F549     3A3EE8     	LDA			ParamE			; get controlling parameter.
4107: F54C     FEFF       	CPI			0FFH			; want to get user number?
4108: F54E     C257F5     	JNZ			SetUser			; No, then set it
4109: F551     3AA1F5     	LDA			CurrentUser		; yes, just return it in A
4110: F554     C35CEB     	JMP			SetStatusBDOS	; exit while setting return status
4111: F557                	                   
4112: F557                SetUser:            
4113: F557     E61F       	ANI			1FH				; no,just keep the low bits (000X XXXX)
4114: F559     32A1F5     	STA			CurrentUser		; and save in Current user
4115: F55C     C9         	RET                
4116: F55D                ;                   
4117: F55D                ;   Function to read a random record from a file.
4118: F55D                ;                   
4119: F55D                fcReadRandom:       
4120: F55D     CD6DF4     	CALL	AUTOSEL	;select proper drive and read.
4121: F560     C33BF3     	JMP	READRAN        
4122: F563                ;                   
4123: F563                ;   Function to compute the file size for random files.
4124: F563                ;                   
4125: F563                fcWriteRandom:      
4126: F563     CD6DF4     	CALL	AUTOSEL	;select proper drive and write.
4127: F566     C344F3     	JMP	WRITERAN       
4128: F569                ;                   
4129: F569                ;   Function to compute the size of a random file.
4130: F569                ;                   
4131: F569                fcGetFileSize:      
4132: F569     CD6DF4     	CALL	AUTOSEL	;select proper drive and check file length
4133: F56C     C37AF3     	JMP	RANSIZE        
4134: F56F                ;                   
4135: F56F                ;   Function #37. This allows a program to log off any drives.
4136: F56F                ; On entry, set (DE) to contain a word with bits set for those
4137: F56F                ; drives that are to be logged off. The log-in vector and the
4138: F56F                ; write protect vector will be updated. This must be a M/PM
4139: F56F                ; special function. 
4140: F56F                ;                   
4141: F56F                fcResetDrive:       
4142: F56F     2A3CE8     	LHLD	ParamsDE	;get drives to log off.
4143: F572     7D         	MOV	A,L	;for each bit that is set, we want
4144: F573     2F         	CMA		;to clear that bit in (LoggedBitMap)
4145: F574     5F         	MOV	E,A	;and (ROBitMap).
4146: F575     7C         	MOV	A,H            
4147: F576     2F         	CMA                
4148: F577     2AA7F5     	LHLD	LoggedBitMap	;reset the login Bit map.
4149: F57A     A4         	ANA	H              
4150: F57B     57         	MOV	D,A            
4151: F57C     7D         	MOV	A,L            
4152: F57D     A3         	ANA	E              
4153: F57E     5F         	MOV	E,A            
4154: F57F     2AA5F5     	LHLD	ROBitMap      
4155: F582     EB         	XCHG               
4156: F583     22A7F5     	SHLD	LoggedBitMap	;and save.
4157: F586     7D         	MOV	A,L	;now do the write protect vector.
4158: F587     A3         	ANA	E              
4159: F588     6F         	MOV	L,A            
4160: F589     7C         	MOV	A,H            
4161: F58A     A2         	ANA	D              
4162: F58B     67         	MOV	H,A            
4163: F58C     22A5F5     	SHLD	ROBitMap	;and save. all done.
4164: F58F     C9         	RET                
4165: F590                ;                   
4166: F590                ;   Get here to return to the user.
4167: F590                ;                   
4168: F590                                    
4169: F590                ;                   
4170: F590                ;   Function #40. This is a special entry to do random i/o.
4171: F590                ; For the case where we are writing to unused disk space, this
4172: F590                ; space will be zeroed out first. This must be a M/PM special
4173: F590                ; purpose function, because why would any normal program even
4174: F590                ; care about the previous contents of a sector about to be
4175: F590                ; written over.     
4176: F590                ;                   
4177: F590                fcWriteZeroFill:    
4178: F590     CD6DF4     	CALL	AUTOSEL	;select proper drive.
4179: F593     3E02       	MVI	A,2	;use special write mode.
4180: F595     32CDF5     	STA	MODE           
4181: F598     0E00       	MVI	C,0	;set write indicator.
4182: F59A     CDAFF2     	CALL	POSITN1	;position the file.
4183: F59D     CCABF1     	CZ	WTSEQ1	;and write (if no errors).
4184: F5A0     C9         	RET                
4185: F5A1                                    
4186: F5A1                ;**************************************************************
4187: F5A1                ;*                  
4188: F5A1                ;*     BDOS data storage pool.
4189: F5A1                ;*                  
4190: F5A1                ;**************************************************************
4191: F5A1                                    
4192: F5A1     00         CurrentUser:			DB	0		; current user number.
4193: F5A2     00         CurrentDrive:			DB	0		; currently active drive.
4194: F5A3     00         BitSetFlag:				DB	0		; flag to set(01) or reset(00) bit in disk allocation table
4195: F5A4                                    
4196: F5A4                ;                   
4197: F5A4     E5         EmptyDir:				DB	EmptyFileFlag	; empty directory segment indicator.
4198: F5A5     0000       ROBitMap:				DW	0		; write protect status for all 16 drives.
4199: F5A7     0000       LoggedBitMap:			DW	0		; drive active word (1 bit per drive).
4200: F5A9     8000       UsersDMA:				DW	080H	;user's dma address (defaults to 80h).
4201: F5AB                ;                   
4202: F5AB                ;   Scratch areas from parameter block.
4203: F5AB                ;                   
4204: F5AB     0000       FilePosInDirSegment:			DW	0	; relative position within dir segment for file (0-3).
4205: F5AD     0000       LastTrackNumber:		DW	0	; last selected track number.
4206: F5AF     0000       LastSectorNumber:		DW	0	; last selected sector number.
4207: F5B1                ;                   
4208: F5B1                ;   Disk storage areas from parameter block.
4209: F5B1                ;                   
4210: F5B1                DirBuffSize				EQU	128	; buffer size
4211: F5B1     0000       DirBuffAddr:			DW	0	;address of directory buffer to use.
4212: F5B3     0000       DiskParamBlock:			DW	0	;contains address of disk parameter block.
4213: F5B5     0000       CHKVECT:				DW	0	;address of check vector.
4214: F5B7     0000       FATpointer:			DW	0	;address of allocation vector (bit map).
4215: F5B9                ;                   
4216: F5B9                ;   Disk Parameter block returned from the bios.
4217: F5B9                ;                   
4218: F5B9                LogicalSecSize			EQU	128	; Logical sector size
4219: F5B9     0000       SECTORS:				DW	0	;sectors per track from bios.
4220: F5BB     00         BLKSHFT:				DB	0	;block shift.
4221: F5BC     00         BLKMASK:				DB	0	;block mask.
4222: F5BD     00         EXTMASK:				DB	0	;extent mask.
4223: F5BE     0000       DiskSize:				DW	0	;disk size from bios (number of blocks-1).
4224: F5C0     0000       DrectorySize:			DW	0	;directory size, number of entries.
4225: F5C2     0000       DirectoryFAT0:					DW	0	;storage for first bytes of bit map (dir space used).
4226: F5C4     0000       DirectoryFAT1:					DW	0
4227: F5C6     0000       OFFSET:					DW	0	;first usable track number.
4228: F5C8     0000       XLATE:					DW	0	;sector translation table address.
4229: F5CA                ;                   
4230: F5CA                ;                   
4231: F5CA     00         CLOSEFLG:				DB	0	;close flag (=0ffh is extent written ok).
4232: F5CB     00         RDWRTFLG:				DB	0	;read/write flag (0ffh=read, 0=write).
4233: F5CC     00         FNDSTAT:				DB	0	;filename found status (0=found first entry, -1 not found).
4234: F5CD     00         MODE:					DB	0	;I/o mode select (0=random, 1=sequential, 2=special random).
4235: F5CE     00         RELBLOCK:				DB	0	;relative position within fcb of block number written.
4236: F5CF     00         COUNTER:				DB	0	;byte counter for directory name searches.
4237: F5D0     00000000   SaveFCB:				DW	0,0	;save space for address of fcb (for directory searches).
4238: F5D4     00         SmallDisk:				DB	0	;if =0 then disk is > 256 blocks long.
4239: F5D5     00         AutoSelectActive:		DB	0	;if non-zero, then auto select activated.
4240: F5D6     00         OLDDRV:					DB	0	;on auto select, storage for previous drive.
4241: F5D7     00         AutoSelectFlag:			DB	0	;if non-zero, then auto select changed drives.
4242: F5D8     00         SAVNXT:					DB	0	;storage for next record number to access.
4243: F5D9     00         SAVEXT:					DB	0	;storage for extent number of file.
4244: F5DA     0000       SAVNREC:				DW	0	;storage for number of records in file.
4245: F5DC     0000       BlockNumber:				DW	0	;block number (physical sector) used within a file or logical sector.
4246: F5DE     0000       LOGSECT:				DW	0	;starting logical (128 byte) sector of block (physical sector).
4247: F5E0     00         FCBPosition:			DB	0	;relative position within buffer for fcb of file of interest.
4248: F5E1     0000       FilePosInDirectory:			DW	0	;files position within directory (0 to max entries -1).
4249: F5E3                ;                   
4250: F5E3                ;   Disk directory buffer checksum bytes. One for each of the
4251: F5E3                ; 16 possible drives.
4252: F5E3                ;                   
4253: F5E3                CheckSumTable:      
4254: F5E3     00000000000000000000000000000000 	DB	0,0,0,0,0,0,0,0,0,0,0,0,0,0,0,0
4255: F5F3                ;                   
4256: F5F3                ;   Extra space ?   
4257: F5F3                ;                   
4258: F5F3     00000000   	DB	0,0,0,0         
4259: F5F7                ;                   
4260: F5F7                ;**************************************************************
4261: F5F7                ;*                  
4262: F5F7                ;*        B I O S   J U M P   T A B L E
4263: F5F7                ;*                  
4264: F5F7                ;**************************************************************
4265: F5F7                ;                   
4266: F5F7                BIOSEntry	Equ	0F600H		; start of bios
4267: F5F7                                    
4268: F5F7                biosBoot			EQU		BIOSEntry + 000H	
4269: F5F7                fcSystemReset		EQU		BIOSEntry + 003H
4270: F5F7                biosConsoleStatus	EQU		BIOSEntry + 006H
4271: F5F7                biosConsoleIn		EQU		BIOSEntry + 009H
4272: F5F7                biosConsoleOut		EQU		BIOSEntry + 00CH
4273: F5F7                fcListOut			EQU		BIOSEntry + 00FH
4274: F5F7                fcPunchOut			EQU		BIOSEntry + 012H
4275: F5F7                biosReaderIn		EQU		BIOSEntry + 015H
4276: F5F7                biosHomeDisk		EQU		BIOSEntry + 018H
4277: F5F7                biosSelectDisk		EQU		BIOSEntry + 01BH
4278: F5F7                biosSetTrack		EQU		BIOSEntry + 01EH
4279: F5F7                biosSetSector		EQU		BIOSEntry + 021H
4280: F5F7                biosSetDMA			EQU		BIOSEntry + 024H
4281: F5F7                biosReadDisk		EQU		BIOSEntry + 027H
4282: F5F7                biosWriteDisk		EQU		BIOSEntry + 02AH
4283: F5F7                biosListStatus		EQU		BIOSEntry + 02DH
4284: F5F7                biosSectorTranslate	EQU		BIOSEntry + 030H
4285: F5F7                                    
4286: F5F7                ;*                  
4287: F5F7                ;******************   E N D   O F   C P / M   *****************
4288: F5F7                ;*                  
4289: F5F7                CodeEnd:            
4290: F5F7                		END               




                                    Xref


0000	0000	$                             		  1554,

2484	ED6D	ADDA2HL                       		  3430,
0506	E242	ADDATOHL                      		  0524,  0884,  1077,
0603	E2BA	AFN                           		  0611,
0609	E2C2	AFN1                          		  0607,
0050	002A	ASTRK                         		  0624,
0052	0040	ATSIGN                        		  1727,
3935	F46D	AUTOSEL                       		  3982,  3988,  4005,  4016,  4023,  4031,  4037,  4044,  4050,  4088,  4120,  4126,  4132,  4178,
4239	F5D5	AUTOSELECTACTIVE              		  1453,  1483,  3937,
4241	F5D7	AUTOSELECTFLAG                		  1452,  1488,  3948,
3952	F491	AUTOSL1                       		  3944,

1749	E9FF	BACKUP                        		  1872,  1914,
1753	EA07	BACKUP1                       		  1750,
1368	E748	BADLOAD                       		  1365,
1559	E8EC	BADSCTR                       		  2141,
1591	E925	BADSEC                        		  1568,
1592	E930	BADSEL                        		  1575,
1560	E8EE	BADSLCT                       		  2037,
1397	E77A	BATCHFCB                      		  0306,  0309,  0311,  0312,  0322,  0326,  0419,
1395	E779	BATCHFLAG                     		  0294,  0412,  0726,  1354,
1590	E921	BDOSDRV                       		  1603,
1438	E806	BDOSENTRY                     		
1589	E915	BDOSERR                       		  1604,
1482	E873	BDOSEXIT                      		  1454,
1495	E890	BDOSEXIT1                     		  1485,  1490,  1974,
1480	E873	BDOSSTACK                     		  1450,
4268	F600	BIOSBOOT                      		
4271	F609	BIOSCONSOLEIN                 		  1618,  1660,  1663,  1975,
4272	F60C	BIOSCONSOLEOUT                		  1686,  1752,  1755,  1970,
4270	F606	BIOSCONSOLESTATUS             		  1657,  1969,  1972,
4266	F600	BIOSENTRY                     		  4268,  4269,  4270,  4271,  4272,  4273,  4274,  4275,  4276,  4277,  4278,  4279,  4280,  4281,  4282,  4283,  4284,
4276	F618	BIOSHOMEDISK                  		  2116,
4283	F62D	BIOSLISTSTATUS                		
4281	F627	BIOSREADDISK                  		  2131,
4275	F615	BIOSREADERIN                  		  1957,
4284	F630	BIOSSECTORTRANSLATE           		  2240,
4277	F61B	BIOSSELECTDISK                		  2068,
4280	F624	BIOSSETDMA                    		  2623,
4279	F621	BIOSSETSECTOR                 		  2243,
4278	F61E	BIOSSETTRACK                  		  2220,
4282	F62A	BIOSWRITEDISK                 		  2137,
3826	F3EA	BITMAP                        		
3845	F3F8	BITMAP1                       		  3851,
3869	F419	BITMAP2                       		  3879,  3896,
3890	F43D	BITMAP3                       		  3883,  3887,
4194	F5A3	BITSETFLAG                    		  2759,  2957,  3893,
0039	0020	BLANK                         		  0118,  0448,  0472,  0498,  0638,  0686,  0827,  0854,  0929,  0981,  0990,  0993,  1235,  1249,  1265,  1325,  1382,  1645,  1699,  1738,  1751,  1769,
4221	F5BC	BLKMASK                       		  2328,  3483,
4220	F5BB	BLKSHFT                       		  2249,  2321,
4245	F5DC	BLOCKNUMBER                   		  2151,  2159,  2303,  2309,  2322,  2334,  3421,  3476,  3481,  3490,
0040	007B	BRACKETLEFT                   		  0284,
0041	007D	BRACKETRIGHT                  		
0026	0008	BS                            		  1643,  1706,  1754,  1817,

0051	005E	CARET                         		  1724,
0064	E000	CBASE                         		  0792,  0793,  1289,
1391	E779	CCPSTACK                      		  0715,  0739,
1406	E7BD	CDRIVE                        		  0266,  0274,  0302,  0329,  0421,  0548,  0730,  0754,  0899,  0912,  0915,  1255,
1408	E7BE	CHANGEDRIVEFLAG               		  0528,  0553,  0757,  0820,  0895,  0908,  1166,  1190,  1251,  1305,  1383,
2023	EB69	CHARBUF                       		  1613,  1654,  1669,
0467	E219	CHECK                         		  0565,  0582,  0621,
2565	EDA7	CHECKDIR                      		  2697,
2637	EDFE	CHECKFILEPOSITION             		  2873,  2950,  3084,  3102,  3115,  3188,  3268,  3296,  3326,  3332,  3750,  3873,
2412	ED1A	CHECKSUM                      		  2572,
2416	ED20	CHECKSUM1                     		  2420,
4253	F5E3	CHECKSUMTABLE                 		  2152,  2566,  2575,
3083	EFCF	CHGNAM1                       		  3091,
3074	EFBE	CHGNAMES                      		  4051,
2308	ECA7	CHKBLK                        		  3372,  3400,
1636	E96F	CHKCHAR                       		  1624,  1721,
0382	E1BF	CHKCON                        		  0337,  1007,  1082,
2586	EDCD	CHKDIR1                       		  2579,
2535	ED95	CHKNMBR                       		  3285,  3895,
2456	ED4D	CHKROFL                       		  2952,  3086,
4213	F5B5	CHKVECT                       		  2573,
2469	ED5D	CHKWPRT                       		  2946,  3075,  3261,  3392,
2707	EE39	CKBITMAP                      		  2756,  2990,  3019,
2744	EE5A	CKBMAP1                       		  2747,
1668	E99D	CKCON1                        		  1662,
1670	E9A0	CKCON2                        		  1656,
1653	E97E	CKCONSOL                      		  1683,  2003,
2458	ED50	CKROF1                        		  3394,
0701	E32B	CLEARBUF                      		  0066,
0587	E2A9	CLEAREXTENT                   		  0576,  0583,
0589	E2AB	CLEAREXTENT1                  		  0593,
2503	ED7B	CLEARS2                       		  3981,  4004,  4043,
0176	E0D7	CLOSE                         		  0327,  1142,
4231	F5CA	CLOSEFLG                      		  3250,  3294,  3309,
3176	F04A	CLOSEIT                       		  3295,  3616,  3989,
3197	F075	CLOSEIT1                      		  3233,
3206	F083	CLOSEIT2                      		  3204,
3211	F089	CLOSEIT3                      		  3208,
3215	F090	CLOSEIT4                      		  3200,
3229	F0A5	CLOSEIT5                      		  3214,
3248	F0BF	CLOSEIT6                      		  3240,
3252	F0C7	CLOSEIT7                      		  3213,  3222,  3227,
0779	E392	CMDADR                        		  0766,
0647	E2E9	CMDTBL                        		  0669,
0738	E353	CMMND1                        		  0345,  0462,  1030,  1034,  1357,  1386,
0750	E369	CMMND2                        		  0734,
0024	0003	CNTRLC                        		  1570,  1664,  1934,
0025	0005	CNTRLE                        		  1842,
0031	0010	CNTRLP                        		  1852,
0032	0012	CNTRLR                        		  1883,
0033	0013	CNTRLS                        		  1661,
0034	0015	CNTRLU                        		  1876,
0035	0018	CNTRLX                        		  1863,
0036	001A	CNTRLZ                        		  1079,
4289	F5F7	CODEEND                       		
0062	E000	CODESTART                     		
0046	003A	COLON                         		  0482,  0544,  0967,  0972,
2298	EC9A	COMBLK                        		  3371,  3399,
1370	E751	COMFILE                       		  1271,
0714	E32F	COMMAND                       		  0065,
3691	F34D	COMPRAND                      		  3754,  3785,
0522	E249	CONVERT                       		  1310,
0515	E247	CONVFST                       		  0755,  0819,  0925,  1022,  1054,  1105,  1164,  1186,  1304,  1380,
0547	E272	CONVRT1                       		  0538,
0551	E279	CONVRT2                       		  0545,
0559	E27F	CONVRT3                       		  0550,
0561	E281	CONVRT4                       		
0564	E284	CONVRT7                       		  0568,
4236	F5CF	COUNTER                       		  2859,  2887,
0030	000D	CR                            		  0110,  1637,  1776,  1812,  1945,
0235	E106	CREATE                        		  1112,
0109	E095	CRLF                          		  0126,  0444,  0460,  0740,  0961,  1059,  1347,
4193	F5A2	CURRENTDRIVE                  		  1601,  2066,  2429,  3800,  3903,  3925,  3945,  3972,  4063,
4192	F5A1	CURRENTUSER                   		  3881,  3953,  4109,  4114,
2021	EB67	CURSORPOSITION                		  1695,  1740,  1765,  1797,  1825,  1868,  1910,
2020	EB66	CURSORPOSITIONSTART           		  1766,  1798,  1848,  1867,

0818	E3C9	DECODE                        		  1103,  1230,
0825	E3D9	DECODE1                       		  0850,
0018	005C	DEFAULTFCB                    		  1316,
0037	007F	DEL                           		  1696,  1830,
0201	E0EC	DELETE                        		  0420,  1040,  1110,
0411	E1DA	DELETEBATCHFILE               		  0344,  0351,  0461,
2546	ED9E	DEMINUSHL2HL                  		  2569,  2667,
2050	EB72	DETOHL                        		  2095,  2100,  2632,  3065,  3127,
2052	EB73	DETOHL1                       		  2060,
4211	F5B1	DIRBUFFADDR                   		  2093,  2414,  2479,  2614,  2628,  3465,
4210	0080	DIRBUFFSIZE                   		  2413,  2631,  3145,
1971	EB3B	DIRC1                         		  1967,
0924	E448	DIRECT                        		  0780,
0932	E459	DIRECT1                       		  0936,
0937	E460	DIRECT2                       		  0930,
0942	E469	DIRECT3                       		  1010,
0970	E49D	DIRECT4                       		  0960,
0974	E4A5	DIRECT5                       		  0969,
0977	E4AA	DIRECT6                       		  1001,  1003,
1004	E4DF	DIRECT7                       		  0991,  0999,
1006	E4E0	DIRECT8                       		  0953,
1011	E4EC	DIRECT9                       		  0943,  1008,
4225	F5C2	DIRECTORYFAT0                 		  3853,
4226	F5C4	DIRECTORYFAT1                 		  2568,
2601	EDDD	DIRREAD                       		  2695,
2592	EDCF	DIRWRITE                      		  2959,  3068,
4212	F5B3	DISKPARAMBLOCK                		  2096,  4096,
1594	E93C	DISKRO                        		  1579,
4223	F5BE	DISKSIZE                      		  2101,  2812,  3008,  3830,
1719	E9DA	DISPLAYACC                    		  1901,  1930,
0405	E1D5	DMASET                        		  0752,  1130,  1282,
0054	0024	DOLLAR                        		  1785,  3886,
2130	EBD5	DOREAD                        		  2603,  3376,
2136	EBDB	DOWRITE                       		  2596,  3480,  3500,
0992	E4C8	DRECT63                       		  0986,
0994	E4CA	DRECT65                       		  0982,
4224	F5C0	DRECTORYSIZE                  		  2445,  2662,
0892	E425	DSELECT                       		  0926,  1038,  1056,  1107,  1168,  1269,
0146	E0BA	DSKSEL                        		  0305,  0331,  0418,  0422,  0731,  0902,  0916,  1257,  1356,

4197	F5A4	EMPTYDIR                      		  3264,
0057	00E5	EMPTYFILEFLAG                 		  2878,  2954,  3877,  4197,
0056	0000	ENDOFMESSAGE                  		  0811,  1369,
0017	0005	ENTRY                         		  0096,  0142,  0149,  0155,  0203,  0209,  0244,  0256,  0355,  0384,  0388,  0396,  0407,
0154	E0C0	ENTRY1                        		  0164,  0178,  0185,  0191,  0237,
0208	E0F1	ENTRY2                        		  0218,  0231,
0043	003D	EQUALS                        		  0476,  1178,
2949	EF49	ERAFIL1                       		  2961,
2945	EF41	ERAFILE                       		  4024,
1021	E4F0	ERASE                         		  0781,
1037	E513	ERASE1                        		  1024,
1567	E8F4	ERROR1                        		  1559,
1574	E900	ERROR2                        		  1560,
1578	E906	ERROR3                        		  1561,
1582	E90C	ERROR4                        		  1562,
1585	E90F	ERROR5                        		  1576,  1580,
0087	E087	ERRORMSGPOINTER               		  0445,  0533,
1220	E653	EXISTS                        		  1217,
0620	E2C9	EXPANDNAME                    		  0562,  0579,  0633,
0628	E2DA	EXPANDNAME1                   		  0625,
0631	E2DC	EXPANDNAME2                   		  0627,
2277	EC81	EXTBLK                        		  2302,  3410,
2288	EC94	EXTBLK1                       		  2284,
4222	F5BD	EXTMASK                       		  2367,  2839,  3307,
0881	E41C	EXTRACT                       		  0951,  0979,  0988,

4214	F5B7	FATPOINTER                    		  2741,  3844,  3855,  4076,
2478	ED67	FCB2HL                        		  2457,  2780,  2886,  2953,  3063,  3122,  3191,  3752,  3876,
1402	E79B	FCBFROMCCP                    		  0170,  0171,  0196,  0223,  0523,  0675,  0823,  0894,  0927,  1039,  1108,  1115,  1131,  1141,  1171,  1172,  1200,  1204,  1234,  1248,  1263,  1283,  1308,  1313,  1315,  1317,  1381,
4247	F5E0	FCBPOSITION                   		  2480,  2690,
3049	EFA5	FCBSET                        		  3286,
3987	F4C1	FCCLOSEFILE                   		  1528,
1950	EB23	FCCONSOLEIN                   		  1512,
1733	E9EB	FCCONSOLEOUT                  		  1513,  1628,  1722,  1790,
1737	E9F1	FCCONSOLEOUT1                 		  1743,
2002	EB59	FCCONSOLESTATUSIN             		  1522,
1796	EA3C	FCCONSOLESTRINGIN             		  1521,  1870,  1880,
1994	EB53	FCCONSOLESTRINGOUT            		  1520,
4042	F508	FCCREATEFILE                  		  1534,
4022	F4F3	FCDELETEFILE                  		  1531,
1964	EB2F	FCDIRECTCONSOLEOUT            		  1517,
4056	F51A	FCGETACTIVEDISKS              		  1536,
4062	F520	FCGETCURRENTDISK              		  1537,
4095	F542	FCGETDPB                      		  1543,
4075	F52D	FCGETFATTABLE                 		  1539,
4131	F569	FCGETFILESIZE                 		  1547,
1980	EB48	FCGETIOBYTE                   		  1518,
4081	F533	FCGETRODISKS                  		  1541,
4105	F549	FCGETUSER                     		  1544,
3961	F49A	FCGETVERSION                  		  1523,
4273	F60F	FCLISTOUT                     		  1516,  1691,
3980	F4B8	FCOPENFILE                    		  1527,
4274	F612	FCPUNCHOUT                    		  1515,
1956	EB29	FCREADERIN                    		  1514,
4119	F55D	FCREADRANDOM                  		  1545,
4030	F4FC	FCREADSEQUENTIAL              		  1532,
4049	F511	FCRENAMEFILE                  		  1535,
3967	F49F	FCRESETDISKSYSTEM             		  1525,
4141	F56F	FCRESETDRIVE                  		  1549,
2010	EB5F	FCRETURN                      		  1550,  1551,
3995	F4C7	FCSEARCHFORFIRST              		  1529,
4007	F4DE	FCSEARCHFORFIRST1             		  4000,
4013	F4E4	FCSEARCHFORNEXT               		  1530,
3923	F461	FCSELECTDISK                  		  1494,  1526,  3951,
2438	ED35	FCSETDISKRO                   		  1540,  2584,
4068	F526	FCSETDMA                      		  1538,
4087	F539	FCSETFILEATTRIBUTES           		  1542,
1986	EB4E	FCSETIOBYTE                   		  1519,
3782	F3B6	FCSETRECORDNUMBER             		  1548,
4269	F603	FCSYSTEMRESET                 		  1511,
4125	F563	FCWRITERANDOM                 		  1546,
4036	F502	FCWRITESEQUENTIAL             		  1533,
4177	F590	FCWRITEZEROFILL               		  1552,
0029	000C	FF                            		
4248	F5E1	FILEPOSINDIRECTORY            		  2148,  2522,  2638,  2650,  2664,  2666,  2673,  2924,  3179,  3180,
4204	F5AB	FILEPOSINDIRSEGMENT           		  2081,  2448,  2524,  3863,
1593	E937	FILERO                        		  1583,
2856	EEBD	FINDFIRST                     		  2948,  3077,  3100,  3114,  3187,  3267,  3325,  3739,  4008,
2870	EED2	FINDNXT                       		  2905,  2912,  2960,  3090,  3107,  3773,  4017,
2885	EEEF	FNDNXT1                       		  2879,
2890	EEF8	FNDNXT2                       		  2922,
2907	EF18	FNDNXT3                       		  2902,
2917	EF21	FNDNXT4                       		  2896,  2899,  2906,
2923	EF28	FNDNXT5                       		  2893,
2937	EF39	FNDNXT6                       		  2874,  2884,
2983	EF68	FNDSPA1                       		  3024,  3043,
3007	EF79	FNDSPA2                       		  2986,
3029	EF94	FNDSPA3                       		  2992,  3021,
3040	EF9C	FNDSPA4                       		  3013,
2976	EF66	FNDSPACE                      		  3414,
4233	F5CC	FNDSTAT                       		  2828,  2858,  2927,
1554	0028	FUNCTIONCOUNT                 		  1457,
1510	E89A	FUNCTIONVECTOR                		  1554,  1460,

1377	E754	GETBACK                       		  1013,  1043,  1080,  1083,  1090,  1153,  1206,  1212,  1219,  1367,
1379	E757	GETBACK1                      		  1238,  1253,  1258,
2252	EC68	GETBLK1                       		  2256,
2262	EC76	GETBLK2                       		  2267,
2268	EC7F	GETBLK3                       		  2264,
2248	EC61	GETBLOCK                      		  2299,  3403,
1612	E956	GETCHAR                       		  1623,  1808,
0394	E1CD	GETDSK                        		  0741,  0753,  0963,
1622	E961	GETECHO                       		  1951,
3260	F0CC	GETEMPTY                      		  3331,  3638,  4045,
0570	E28E	GETEXT                        		  0566,
0577	E29B	GETEXT1                       		  0574,
0581	E29F	GETEXT4                       		  0585,
3277	F0EE	GETMT1                        		  3281,
3292	F102	GETNEXT                       		  3364,  3532,
2661	EE0E	GETNEXTENTRY                  		  2872,  3871,
4097	F545	GETPRM1                       		  4058,  4077,  4083,
2494	ED72	GETS2                         		  2504,  2511,  3183,  3521,  3655,
0254	E112	GETSETCURRENTUSER             		  0724,  1237,
0248	E110	GETUSR                        		  0261,
2427	ED27	GETWPRT                       		  2470,  3181,
0049	003E	GRTTHAN                       		  0488,  0744,
3313	F12B	GTNEXT1                       		  3305,
3323	F136	GTNEXT2                       		  3311,
3335	F154	GTNEXT3                       		  3312,  3327,
3337	F157	GTNEXT4                       		  3334,
3345	F15E	GTNEXT5                       		  3319,  3330,  3333,

0790	E3A0	HALT                          		
0870	E413	HL2DE                         		  0321,  0876,  1174,  1319,
2394	ED0D	HLRIGHTC                      		  2150,  2431,  3803,  3832,
2396	ED0E	HLRIGHTC1                     		  2406,
2115	EBC4	HOMEDRIVE                     		  2864,  3862,

0077	E008	INBUFF                        		  0086,  0335,  0375,  1320,
0085	E085	INBUFFADDRESS                 		  0376,  0529,  0595,  1036,  1175,  1185,
0075	E007	INBUFFCOUNT                   		  0318,  0361,  0703,  0732,  1028,
0083	E085	INBUFFEND                     		  0074,
0073	E006	INBUFFSIZE                    		  0320,
0072	E006	INBUFFSTART                   		  0074,  0354,
2648	EE07	INITIALIZEFILEPOSITION        		  2668,  2863,  2938,  3868,
0293	E136	INPUTLINE                     		  0746,  1027,
0350	E193	INPUTLINECONSOLE              		  0296,  0308,  0314,  0328,
0360	E1A4	INPUTLINECONSOLE1             		  0338,
0363	E1A8	INPUTLINECONSOLE2             		  0372,
0373	E1B7	INPUTLINECONSOLE3             		  0367,
0015	0003	IOBYTE                        		  1981,  1987,
2015	EB60	IOERR1                        		  3346,  3382,  3398,
2138	EBDE	IORET                         		  2132,

2041	EB6D	JUMPTOHL                      		  2142,  2465,  2473,

4206	F5AF	LASTSECTORNUMBER              		  2087,  2122,  2164,  2227,
4205	F5AD	LASTTRACKNUMBER               		  2084,  2118,  2169,  2222,
0048	003C	LESSTH                        		  0486,
0028	000A	LF                            		  0112,  1639,  1711,  1778,  1814,
4199	F5A7	LOGGEDBITMAP                  		  3802,  3813,  3817,  3970,  4057,  4148,  4156,
2320	ECAD	LOGICAL                       		  3374,  3448,
4218	0080	LOGICALSECSIZE                		  1066,  1127,  1287,  3362,  3397,
2323	ECB3	LOGICL1                       		  2326,
3799	F3C9	LOGINDRIVE                    		  3929,  3976,
4246	F5DE	LOGSECT                       		  2327,  3473,

0013	0040	MEM                           		  0061,
4234	F5CD	MODE                          		  2378,  3353,  3388,  3449,  3528,  3562,  4180,
2521	ED88	MOREFLS                       		  2536,  2582,  2882,
0865	E411	MOVE3                         		  1272,
0273	E126	MOVECD                        		  0356,  1256,  1355,
2627	EDF2	MOVEDIR                       		  4009,  4018,
3158	F03C	MOVEWORD                      		  3216,  3218,

1410	E7BF	NBYTES                        		  1060,  1063,
1760	EA0C	NEWLINE                       		  1878,  1887,
1764	EA14	NEWLN1                        		  1771,
0494	E238	NEXTNONBLANKCHAR              		  0502,  0531,  1177,
0810	E3C1	NOFILE                        		  0808,
0807	E3BB	NONE                          		  0941,  1042,  1211,
1154	E5D8	NOSPACE                       		  1149,
0646	0006	NUMCMDS                       		  0673,

4227	F5C6	OFFSET                        		  2216,
4240	F5D6	OLDDRV                        		  1492,  3946,
0162	E0C8	OPEN                          		  0172,  0307,
0168	E0CD	OPENFCB                       		  1057,  1273,
3112	EFF9	OPENIT                        		  3629,  3983,
3117	F002	OPENIT1                       		  3336,
3146	F033	OPENIT2                       		  3142,  3144,
1678	E9A3	OUTCHAR                       		  1725,  1736,  1739,  1762,  1770,  1777,  1779,  1946,
1693	E9BD	OUTCHR1                       		  1681,
1710	E9D4	OUTCHR2                       		  1707,
1775	EA24	OUTCRLF                       		  1600,  1763,  1846,
2019	EB65	OUTPUTFLAG                    		  1679,  1826,  1907,  1912,  1915,

0636	E2E1	PADFIELD                      		  0575,  0622,  0640,
0852	E404	PADNUMBER                     		  0828,  0858,
1473	E83E	PARAME                        		  1445,  1493,  3924,  3942,  4106,
1472	E83C	PARAMSDE                      		  1442,  1468,  1486,  1799,  2278,  2340,  2349,  2495,  2861,  3060,  3078,  3124,  3147,  3194,  3262,  3265,  3270,  3298,  3393,  3423,  3568,  3740,  3783,  3938,  3954,  4015,  4142,
0045	002E	PERIOD                        		  0480,  0572,
0019	0080	PG0BUFFER                     		  0319,  0401,  0751,  0882,  1076,  1334,  1346,  3973,
0124	E0A4	PLINE                         		  0800,  0809,  1026,  1150,  1218,  1366,
0128	E0A9	PLINE2                        		  0136,  0336,
3560	F2AB	POSITION                      		  3671,  3679,
3566	F2AF	POSITN1                       		  4182,
3613	F2EF	POSITN2                       		  3603,
3646	F327	POSITN3                       		  3609,  3632,
3653	F32C	POSITN4                       		  3622,  3637,  3642,
3661	F333	POSITN5                       		  3595,
0053	0023	POUNDSN                       		  1761,
0093	E089	PRINT                         		  0102,  0134,  0453,  0459,  0743,  0745,  1081,
0100	E08F	PRINTB                        		  0111,  0113,  0119,  0966,  0968,  0973,  0995,
2022	EB68	PRINTERFLAG                   		  1689,  1855,
1598	E940	PRTERR                        		  1569,  1586,
1783	EA2E	PRTMESG                       		  1605,  1607,  1792,  1998,

0042	003F	QMARK                         		  0458,  0606,  0626,  0933,  2895,  3999,  4003,

3749	F38C	RANSIZ1                       		  3774,
3772	F3AE	RANSIZ2                       		  3766,
3775	F3B4	RANSIZ3                       		  3751,
3737	F37A	RANSIZE                       		  4133,
1804	EA4A	RDBUF1                        		  1822,  1834,  1860,  1941,
1885	EACB	RDBUF10                       		  1827,
1892	EAD3	RDBUF11                       		  1904,
1905	EAE5	RDBUF12                       		  1895,
1913	EAF4	RDBUF13                       		  1917,
1922	EB01	RDBUF14                       		  1884,
1926	EB04	RDBUF15                       		  1839,
1939	EB18	RDBUF16                       		  1936,
1942	EB1C	RDBUF17                       		  1813,  1815,
1807	EA4C	RDBUF2                        		  1849,  1909,  1918,
1829	EA71	RDBUF3                        		  1818,
1841	EA81	RDBUF4                        		  1831,
1851	EA92	RDBUF5                        		  1843,
1862	EAA3	RDBUF6                        		  1853,
1866	EAA9	RDBUF7                        		  1873,
1875	EABA	RDBUF8                        		  1864,
1882	EAC6	RDBUF9                        		  1877,
0801	E3B0	RDERR                         		  0799,
0798	E3AA	RDERROR                       		  1091,
0216	E0F6	RDREC                         		  0224,  0313,  1284,
3351	F164	RDSEQ                         		  4032,
3354	F169	RDSEQ1                        		  3672,
3370	F18E	RDSEQ2                        		  3361,
3381	F1A3	RDSEQ3                        		  3363,  3369,  3373,
4232	F5CB	RDWRTFLG                      		  3328,  3356,  3391,
0222	E0FB	READFCB                       		  1069,
3669	F33B	READRAN                       		  4121,
4235	F5CE	RELBLOCK                      		  3404,  3428,
0242	E10B	RENAM                         		  1205,
1163	E5E1	RENAME                        		  0784,
1182	E610	RENAME1                       		  1179,
1197	E62A	RENAME2                       		  1193,
1201	E62F	RENAME3                       		
1210	E63E	RENAME4                       		  1203,
1213	E644	RENAME5                       		  1181,  1187,  1196,
1216	E64A	RENAME6                       		  1170,
0140	E0B5	RESETDISKSYSTEM               		  0725,
0907	E437	RESETDR                       		  1093,  1214,  1303,  1362,  1378,
4198	F5A5	ROBITMAP                      		  2428,  2439,  2444,  3969,  4082,  4154,  4163,
1561	E8F0	RODISK                        		  2472,
1562	E8F2	ROFILE                        		  2464,
1404	E7BC	RTNCODE                       		  0156,  0944,

2836	EEAC	SAMEXT                        		  2910,
3101	EFE8	SAVATR1                       		  3108,
1102	E57E	SAVE                          		  0783,
1121	E5A5	SAVE1                         		  1136,
1140	E5C2	SAVE2                         		  1124,
1148	E5CC	SAVE3                         		  1113,  1135,
1151	E5D2	SAVE4                         		  1144,
3098	EFE3	SAVEATTR                      		  4089,
4237	F5D0	SAVEFCB                       		  2862,  2875,  4014,
4243	F5D9	SAVEXT                        		  2261,  2369,
4244	F5DA	SAVNREC                       		  2251,  2330,  2362,  2384,  3358,  3366,  3396,  3502,  3538,
4242	F5D8	SAVNXT                        		  2365,  2388,  3359,  3503,
0668	E301	SEARCH                        		  0760,
0671	E306	SEARCH1                       		  0696,
0677	E30F	SEARCH2                       		  0684,
0690	E322	SEARCH3                       		  0680,  0693,
0694	E327	SEARCH4                       		  0687,
4219	F5B9	SECTORS                       		  2098,  2182,  2194,
2065	EB7C	SELECTDISK                    		  3806,
2108	EBC0	SELECTDISK1                   		  2106,
0047	003B	SEMIC                         		  0484,
2607	EDE3	SET2USERSDMA                  		  2597,  3491,  3975,  4071,
3902	F44B	SETBIT                        		  2443,  3816,
3906	F452	SETBIT1                       		  3910,
3911	F45A	SETBIT2                       		  3908,
2779	EE71	SETCLEARFATBITS               		  2958,  3894,
0260	E117	SETCURRENTDRIVE               		  0352,  1349,
2557	EDA5	SETDIR                        		  2593,
2613	EDE9	SETDIRDMA                     		  2594,  2602,  3472,
2619	EDEC	SETDMA0                       		  2609,
2339	ECC9	SETEXT                        		  2366,  3118,  4001,
2785	EE7A	SETFL1                        		  2822,
2801	EE8B	SETFL2                        		  2793,
2808	EE91	SETFL3                        		  2799,
2818	EEA0	SETFL4                        		  2811,
2348	ECD1	SETHLDE                       		  2360,  2377,
2376	ECF5	SETNREC                       		  3377,  3531,  3542,
2510	ED81	SETS2B7                       		  3128,  3287,  3347,  3665,
2008	EB5C	SETSTATUSBDOS                 		  1952,  1958,  1976,  1982,  2017,  2829,  2940,  3340,  3419,  3649,  3963,  4064,  4110,
4112	F557	SETUSER                       		  4108,
2036	EB6A	SLCTERR                       		  3807,
4238	F5D4	SMALLDISK                     		  2103,  2282,  2791,  3198,  3426,
0117	E09F	SPACE                         		  0971,  0975,  1002,
0195	E0E6	SRCHFCB                       		  0940,  1169,  1202,
0183	E0DC	SRCHFST                       		  0197,
0189	E0E1	SRCHNXT                       		  1009,
1474	E83F	STATUSBDOSRETURN              		  1447,  1498,  2009,  2926,  3178,  3253,  3367,  3444,  3533,  3620,  3630,  3640,  3664,  3889,  4098,
2754	EE60	STBITMAP                      		  2817,
2769	EE6A	STBMAP1                       		  2772,  3032,
0400	E1D2	STDDMA                        		  1152,  1348,
2382	ED01	STNREC1                       		  2380,
2359	ECDE	STRDATA                       		  3338,  3357,  3395,
2827	EEA6	STSTATUS                      		  4025,  4052,  4090,
0443	E1F2	SYNERR                        		  0473,  0756,  0822,  0832,  0837,  0843,  0845,  0847,  0855,  1055,  1094,  1106,  1165,  1215,  1232,  1236,  1266,  1363,  1385,
0446	E1F8	SYNERR1                       		  0456,
0457	E20B	SYNERR2                       		  0449,  0451,

0027	0009	TAB                           		  1641,  1735,
0020	0100	TBASE                         		  1120,  1278,  1350,
0016	0004	TDRIVE                        		  0268,  0275,
2157	EBF4	TRACKSECTORFORBLOCK           		  3375,  3478,  3497,
2175	EC07	TRACKSECTORFORBLOCK1          		  2191,
2192	EC1D	TRACKSECTORFORBLOCK2          		  2180,  2205,
2210	EC32	TRACKSECTORFORBLOCK3          		  2196,  2201,
2147	EBE6	TRACKSECTORFORDIR             		  2694,  3067,
1053	E52E	TYPE                          		  0782,
1062	E545	TYPE1                         		  1084,
1064	E548	TYPE2                         		
1074	E558	TYPE3                         		  1067,
1088	E571	TYPE4                         		  1071,
1092	E578	TYPE5                         		  1058,

1246	E676	UNKNOWN                       		  0759,  0786,
1364	E73F	UNKWN0                        		  1294,  1302,
1262	E692	UNKWN1                        		  1250,
1267	E69B	UNKWN2                        		
1279	E6AF	UNKWN3                        		  1295,
1299	E6CF	UNKWN4                        		  1285,
1321	E6FE	UNKWN5                        		  1328,
1332	E70C	UNKWN6                        		  1324,  1326,
1335	E711	UNKWN7                        		  1343,
1344	E71D	UNKWN8                        		  1339,
1361	E739	UNKWN9                        		  1274,
3057	EFA9	UPDATE                        		  3089,  3106,
3066	EFB8	UPDATE1                       		  3251,
0281	E12D	UPPER                         		  0369,
0044	005F	USCORE                        		  0478,  1180,
1229	E65F	USER                          		  0785,
4200	F5A9	USERSDMA                      		  2608,  2630,  3974,  4070,
1475	E841	USERSTACK                     		  1449,  1496,

3677	F344	WRITERAN                      		  4127,
0229	E101	WRTREC                        		  1132,
3386	F1A6	WTSEQ                         		  4038,
3389	F1AB	WTSEQ1                        		  3680,  4183,
3513	F27A	WTSEQ10                       		  3505,
3539	F2A6	WTSEQ11                       		  3536,
3541	F2A8	WTSEQ12                       		  3527,  3530,
3413	F1E3	WTSEQ2                        		  3407,
3420	F1F0	WTSEQ3                        		  3417,
3433	F20C	WTSEQ4                        		  3429,
3441	F214	WTSEQ5                        		  3432,
3443	F216	WTSEQ6                        		  3402,
3467	F234	WTSEQ7                        		  3471,
3475	F242	WTSEQ8                        		  3488,
3496	F263	WTSEQ9                        		  3452,  3463,
3525	F287	WTSEQ99                       		

4228	F5C8	XLATE                         		  2092,  2238,

1044	E523	YESNO                         		  1025,
